   1              		.cpu cortex-m4
   2              		.eabi_attribute 27, 1
   3              		.eabi_attribute 20, 1
   4              		.eabi_attribute 21, 1
   5              		.eabi_attribute 23, 3
   6              		.eabi_attribute 24, 1
   7              		.eabi_attribute 25, 1
   8              		.eabi_attribute 26, 1
   9              		.eabi_attribute 30, 1
  10              		.eabi_attribute 34, 1
  11              		.eabi_attribute 18, 4
  12              		.file	"CDCClassDevice.c"
  13              		.text
  14              	.Ltext0:
  15              		.cfi_sections	.debug_frame
  16              		.section	.text.CDC_Device_ConfigureEndpoints,"ax",%progbits
  17              		.align	1
  18              		.global	CDC_Device_ConfigureEndpoints
  19              		.arch armv7e-m
  20              		.syntax unified
  21              		.thumb
  22              		.thumb_func
  23              		.fpu fpv4-sp-d16
  25              	CDC_Device_ConfigureEndpoints:
  26              	.LVL0:
  27              	.LFB194:
  28              		.file 1 "/opt/XMClib/XMC_Peripheral_Library_v2.1.16/ThirdPartyLibraries/USBlib/USB/Class/Device/CD
   1:/opt/XMClib/XMC_Peripheral_Library_v2.1.16/ThirdPartyLibraries/USBlib/USB/Class/Device/CDCClassDevice.c **** /*
   2:/opt/XMClib/XMC_Peripheral_Library_v2.1.16/ThirdPartyLibraries/USBlib/USB/Class/Device/CDCClassDevice.c ****              LUFA Library
   3:/opt/XMClib/XMC_Peripheral_Library_v2.1.16/ThirdPartyLibraries/USBlib/USB/Class/Device/CDCClassDevice.c ****      Copyright (C) Dean Camera, 2014.
   4:/opt/XMClib/XMC_Peripheral_Library_v2.1.16/ThirdPartyLibraries/USBlib/USB/Class/Device/CDCClassDevice.c **** 
   5:/opt/XMClib/XMC_Peripheral_Library_v2.1.16/ThirdPartyLibraries/USBlib/USB/Class/Device/CDCClassDevice.c ****   dean [at] fourwalledcubicle [dot] com
   6:/opt/XMClib/XMC_Peripheral_Library_v2.1.16/ThirdPartyLibraries/USBlib/USB/Class/Device/CDCClassDevice.c ****            www.lufa-lib.org
   7:/opt/XMClib/XMC_Peripheral_Library_v2.1.16/ThirdPartyLibraries/USBlib/USB/Class/Device/CDCClassDevice.c **** */
   8:/opt/XMClib/XMC_Peripheral_Library_v2.1.16/ThirdPartyLibraries/USBlib/USB/Class/Device/CDCClassDevice.c **** 
   9:/opt/XMClib/XMC_Peripheral_Library_v2.1.16/ThirdPartyLibraries/USBlib/USB/Class/Device/CDCClassDevice.c **** /*
  10:/opt/XMClib/XMC_Peripheral_Library_v2.1.16/ThirdPartyLibraries/USBlib/USB/Class/Device/CDCClassDevice.c ****   Copyright 2014  Dean Camera (dean [at] fourwalledcubicle [dot] com)
  11:/opt/XMClib/XMC_Peripheral_Library_v2.1.16/ThirdPartyLibraries/USBlib/USB/Class/Device/CDCClassDevice.c **** 
  12:/opt/XMClib/XMC_Peripheral_Library_v2.1.16/ThirdPartyLibraries/USBlib/USB/Class/Device/CDCClassDevice.c ****   Permission to use, copy, modify, distribute, and sell this
  13:/opt/XMClib/XMC_Peripheral_Library_v2.1.16/ThirdPartyLibraries/USBlib/USB/Class/Device/CDCClassDevice.c ****   software and its documentation for any purpose is hereby granted
  14:/opt/XMClib/XMC_Peripheral_Library_v2.1.16/ThirdPartyLibraries/USBlib/USB/Class/Device/CDCClassDevice.c ****   without fee, provided that the above copyright notice appear in
  15:/opt/XMClib/XMC_Peripheral_Library_v2.1.16/ThirdPartyLibraries/USBlib/USB/Class/Device/CDCClassDevice.c ****   all copies and that both that the copyright notice and this
  16:/opt/XMClib/XMC_Peripheral_Library_v2.1.16/ThirdPartyLibraries/USBlib/USB/Class/Device/CDCClassDevice.c ****   permission notice and warranty disclaimer appear in supporting
  17:/opt/XMClib/XMC_Peripheral_Library_v2.1.16/ThirdPartyLibraries/USBlib/USB/Class/Device/CDCClassDevice.c ****   documentation, and that the name of the author not be used in
  18:/opt/XMClib/XMC_Peripheral_Library_v2.1.16/ThirdPartyLibraries/USBlib/USB/Class/Device/CDCClassDevice.c ****   advertising or publicity pertaining to distribution of the
  19:/opt/XMClib/XMC_Peripheral_Library_v2.1.16/ThirdPartyLibraries/USBlib/USB/Class/Device/CDCClassDevice.c ****   software without specific, written prior permission.
  20:/opt/XMClib/XMC_Peripheral_Library_v2.1.16/ThirdPartyLibraries/USBlib/USB/Class/Device/CDCClassDevice.c **** 
  21:/opt/XMClib/XMC_Peripheral_Library_v2.1.16/ThirdPartyLibraries/USBlib/USB/Class/Device/CDCClassDevice.c ****   The author disclaims all warranties with regard to this
  22:/opt/XMClib/XMC_Peripheral_Library_v2.1.16/ThirdPartyLibraries/USBlib/USB/Class/Device/CDCClassDevice.c ****   software, including all implied warranties of merchantability
  23:/opt/XMClib/XMC_Peripheral_Library_v2.1.16/ThirdPartyLibraries/USBlib/USB/Class/Device/CDCClassDevice.c ****   and fitness.  In no event shall the author be liable for any
  24:/opt/XMClib/XMC_Peripheral_Library_v2.1.16/ThirdPartyLibraries/USBlib/USB/Class/Device/CDCClassDevice.c ****   special, indirect or consequential damages or any damages
  25:/opt/XMClib/XMC_Peripheral_Library_v2.1.16/ThirdPartyLibraries/USBlib/USB/Class/Device/CDCClassDevice.c ****   whatsoever resulting from loss of use, data or profits, whether
  26:/opt/XMClib/XMC_Peripheral_Library_v2.1.16/ThirdPartyLibraries/USBlib/USB/Class/Device/CDCClassDevice.c ****   in an action of contract, negligence or other tortious action,
  27:/opt/XMClib/XMC_Peripheral_Library_v2.1.16/ThirdPartyLibraries/USBlib/USB/Class/Device/CDCClassDevice.c ****   arising out of or in connection with the use or performance of
  28:/opt/XMClib/XMC_Peripheral_Library_v2.1.16/ThirdPartyLibraries/USBlib/USB/Class/Device/CDCClassDevice.c ****   this software.
  29:/opt/XMClib/XMC_Peripheral_Library_v2.1.16/ThirdPartyLibraries/USBlib/USB/Class/Device/CDCClassDevice.c **** */
  30:/opt/XMClib/XMC_Peripheral_Library_v2.1.16/ThirdPartyLibraries/USBlib/USB/Class/Device/CDCClassDevice.c **** 
  31:/opt/XMClib/XMC_Peripheral_Library_v2.1.16/ThirdPartyLibraries/USBlib/USB/Class/Device/CDCClassDevice.c **** #define  __INCLUDE_FROM_USB_DRIVER
  32:/opt/XMClib/XMC_Peripheral_Library_v2.1.16/ThirdPartyLibraries/USBlib/USB/Class/Device/CDCClassDevice.c **** #include "../../Core/USBMode.h"
  33:/opt/XMClib/XMC_Peripheral_Library_v2.1.16/ThirdPartyLibraries/USBlib/USB/Class/Device/CDCClassDevice.c **** 
  34:/opt/XMClib/XMC_Peripheral_Library_v2.1.16/ThirdPartyLibraries/USBlib/USB/Class/Device/CDCClassDevice.c **** #if defined(USB_CAN_BE_DEVICE)
  35:/opt/XMClib/XMC_Peripheral_Library_v2.1.16/ThirdPartyLibraries/USBlib/USB/Class/Device/CDCClassDevice.c **** 
  36:/opt/XMClib/XMC_Peripheral_Library_v2.1.16/ThirdPartyLibraries/USBlib/USB/Class/Device/CDCClassDevice.c **** #define  __INCLUDE_FROM_CDC_DRIVER
  37:/opt/XMClib/XMC_Peripheral_Library_v2.1.16/ThirdPartyLibraries/USBlib/USB/Class/Device/CDCClassDevice.c **** #define  __INCLUDE_FROM_CDC_DEVICE_C
  38:/opt/XMClib/XMC_Peripheral_Library_v2.1.16/ThirdPartyLibraries/USBlib/USB/Class/Device/CDCClassDevice.c **** #include "CDCClassDevice.h"
  39:/opt/XMClib/XMC_Peripheral_Library_v2.1.16/ThirdPartyLibraries/USBlib/USB/Class/Device/CDCClassDevice.c **** 
  40:/opt/XMClib/XMC_Peripheral_Library_v2.1.16/ThirdPartyLibraries/USBlib/USB/Class/Device/CDCClassDevice.c **** void CDC_Device_ProcessControlRequest(USB_ClassInfo_CDC_Device_t* const CDCInterfaceInfo)
  41:/opt/XMClib/XMC_Peripheral_Library_v2.1.16/ThirdPartyLibraries/USBlib/USB/Class/Device/CDCClassDevice.c **** {
  42:/opt/XMClib/XMC_Peripheral_Library_v2.1.16/ThirdPartyLibraries/USBlib/USB/Class/Device/CDCClassDevice.c **** 	if (!(Endpoint_IsSETUPReceived()))
  43:/opt/XMClib/XMC_Peripheral_Library_v2.1.16/ThirdPartyLibraries/USBlib/USB/Class/Device/CDCClassDevice.c **** 	  return;
  44:/opt/XMClib/XMC_Peripheral_Library_v2.1.16/ThirdPartyLibraries/USBlib/USB/Class/Device/CDCClassDevice.c **** 
  45:/opt/XMClib/XMC_Peripheral_Library_v2.1.16/ThirdPartyLibraries/USBlib/USB/Class/Device/CDCClassDevice.c **** 	if (USB_ControlRequest.wIndex != CDCInterfaceInfo->Config.ControlInterfaceNumber)
  46:/opt/XMClib/XMC_Peripheral_Library_v2.1.16/ThirdPartyLibraries/USBlib/USB/Class/Device/CDCClassDevice.c **** 	  return;
  47:/opt/XMClib/XMC_Peripheral_Library_v2.1.16/ThirdPartyLibraries/USBlib/USB/Class/Device/CDCClassDevice.c **** 
  48:/opt/XMClib/XMC_Peripheral_Library_v2.1.16/ThirdPartyLibraries/USBlib/USB/Class/Device/CDCClassDevice.c **** 	switch (USB_ControlRequest.bRequest)
  49:/opt/XMClib/XMC_Peripheral_Library_v2.1.16/ThirdPartyLibraries/USBlib/USB/Class/Device/CDCClassDevice.c **** 	{
  50:/opt/XMClib/XMC_Peripheral_Library_v2.1.16/ThirdPartyLibraries/USBlib/USB/Class/Device/CDCClassDevice.c **** 		case CDC_REQ_GetLineEncoding:
  51:/opt/XMClib/XMC_Peripheral_Library_v2.1.16/ThirdPartyLibraries/USBlib/USB/Class/Device/CDCClassDevice.c **** 			if (USB_ControlRequest.bmRequestType == (REQDIR_DEVICETOHOST | REQTYPE_CLASS | REQREC_INTERFACE)
  52:/opt/XMClib/XMC_Peripheral_Library_v2.1.16/ThirdPartyLibraries/USBlib/USB/Class/Device/CDCClassDevice.c **** 			{
  53:/opt/XMClib/XMC_Peripheral_Library_v2.1.16/ThirdPartyLibraries/USBlib/USB/Class/Device/CDCClassDevice.c **** 				Endpoint_ClearSETUP();
  54:/opt/XMClib/XMC_Peripheral_Library_v2.1.16/ThirdPartyLibraries/USBlib/USB/Class/Device/CDCClassDevice.c **** 
  55:/opt/XMClib/XMC_Peripheral_Library_v2.1.16/ThirdPartyLibraries/USBlib/USB/Class/Device/CDCClassDevice.c **** 				while (!(Endpoint_IsINReady()));
  56:/opt/XMClib/XMC_Peripheral_Library_v2.1.16/ThirdPartyLibraries/USBlib/USB/Class/Device/CDCClassDevice.c **** 
  57:/opt/XMClib/XMC_Peripheral_Library_v2.1.16/ThirdPartyLibraries/USBlib/USB/Class/Device/CDCClassDevice.c **** 				Endpoint_Write_32_LE(CDCInterfaceInfo->State.LineEncoding.BaudRateBPS);
  58:/opt/XMClib/XMC_Peripheral_Library_v2.1.16/ThirdPartyLibraries/USBlib/USB/Class/Device/CDCClassDevice.c **** 				Endpoint_Write_8(CDCInterfaceInfo->State.LineEncoding.CharFormat);
  59:/opt/XMClib/XMC_Peripheral_Library_v2.1.16/ThirdPartyLibraries/USBlib/USB/Class/Device/CDCClassDevice.c **** 				Endpoint_Write_8(CDCInterfaceInfo->State.LineEncoding.ParityType);
  60:/opt/XMClib/XMC_Peripheral_Library_v2.1.16/ThirdPartyLibraries/USBlib/USB/Class/Device/CDCClassDevice.c **** 				Endpoint_Write_8(CDCInterfaceInfo->State.LineEncoding.DataBits);
  61:/opt/XMClib/XMC_Peripheral_Library_v2.1.16/ThirdPartyLibraries/USBlib/USB/Class/Device/CDCClassDevice.c **** 
  62:/opt/XMClib/XMC_Peripheral_Library_v2.1.16/ThirdPartyLibraries/USBlib/USB/Class/Device/CDCClassDevice.c **** 				Endpoint_ClearIN();
  63:/opt/XMClib/XMC_Peripheral_Library_v2.1.16/ThirdPartyLibraries/USBlib/USB/Class/Device/CDCClassDevice.c **** 				Endpoint_ClearStatusStage();
  64:/opt/XMClib/XMC_Peripheral_Library_v2.1.16/ThirdPartyLibraries/USBlib/USB/Class/Device/CDCClassDevice.c **** 			}
  65:/opt/XMClib/XMC_Peripheral_Library_v2.1.16/ThirdPartyLibraries/USBlib/USB/Class/Device/CDCClassDevice.c **** 
  66:/opt/XMClib/XMC_Peripheral_Library_v2.1.16/ThirdPartyLibraries/USBlib/USB/Class/Device/CDCClassDevice.c **** 			break;
  67:/opt/XMClib/XMC_Peripheral_Library_v2.1.16/ThirdPartyLibraries/USBlib/USB/Class/Device/CDCClassDevice.c **** 		case CDC_REQ_SetLineEncoding:
  68:/opt/XMClib/XMC_Peripheral_Library_v2.1.16/ThirdPartyLibraries/USBlib/USB/Class/Device/CDCClassDevice.c **** 			if (USB_ControlRequest.bmRequestType == (REQDIR_HOSTTODEVICE | REQTYPE_CLASS | REQREC_INTERFACE)
  69:/opt/XMClib/XMC_Peripheral_Library_v2.1.16/ThirdPartyLibraries/USBlib/USB/Class/Device/CDCClassDevice.c **** 			{
  70:/opt/XMClib/XMC_Peripheral_Library_v2.1.16/ThirdPartyLibraries/USBlib/USB/Class/Device/CDCClassDevice.c **** 				Endpoint_ClearSETUP();
  71:/opt/XMClib/XMC_Peripheral_Library_v2.1.16/ThirdPartyLibraries/USBlib/USB/Class/Device/CDCClassDevice.c **** 
  72:/opt/XMClib/XMC_Peripheral_Library_v2.1.16/ThirdPartyLibraries/USBlib/USB/Class/Device/CDCClassDevice.c **** 				while (!(Endpoint_IsOUTReceived()))
  73:/opt/XMClib/XMC_Peripheral_Library_v2.1.16/ThirdPartyLibraries/USBlib/USB/Class/Device/CDCClassDevice.c **** 				{
  74:/opt/XMClib/XMC_Peripheral_Library_v2.1.16/ThirdPartyLibraries/USBlib/USB/Class/Device/CDCClassDevice.c **** 					if (USB_DeviceState == DEVICE_STATE_Unattached)
  75:/opt/XMClib/XMC_Peripheral_Library_v2.1.16/ThirdPartyLibraries/USBlib/USB/Class/Device/CDCClassDevice.c **** 					  return;
  76:/opt/XMClib/XMC_Peripheral_Library_v2.1.16/ThirdPartyLibraries/USBlib/USB/Class/Device/CDCClassDevice.c **** 				}
  77:/opt/XMClib/XMC_Peripheral_Library_v2.1.16/ThirdPartyLibraries/USBlib/USB/Class/Device/CDCClassDevice.c **** 
  78:/opt/XMClib/XMC_Peripheral_Library_v2.1.16/ThirdPartyLibraries/USBlib/USB/Class/Device/CDCClassDevice.c **** 				CDCInterfaceInfo->State.LineEncoding.BaudRateBPS = Endpoint_Read_32_LE();
  79:/opt/XMClib/XMC_Peripheral_Library_v2.1.16/ThirdPartyLibraries/USBlib/USB/Class/Device/CDCClassDevice.c **** 				CDCInterfaceInfo->State.LineEncoding.CharFormat  = Endpoint_Read_8();
  80:/opt/XMClib/XMC_Peripheral_Library_v2.1.16/ThirdPartyLibraries/USBlib/USB/Class/Device/CDCClassDevice.c **** 				CDCInterfaceInfo->State.LineEncoding.ParityType  = Endpoint_Read_8();
  81:/opt/XMClib/XMC_Peripheral_Library_v2.1.16/ThirdPartyLibraries/USBlib/USB/Class/Device/CDCClassDevice.c **** 				CDCInterfaceInfo->State.LineEncoding.DataBits    = Endpoint_Read_8();
  82:/opt/XMClib/XMC_Peripheral_Library_v2.1.16/ThirdPartyLibraries/USBlib/USB/Class/Device/CDCClassDevice.c **** 
  83:/opt/XMClib/XMC_Peripheral_Library_v2.1.16/ThirdPartyLibraries/USBlib/USB/Class/Device/CDCClassDevice.c **** 				Endpoint_ClearOUT();
  84:/opt/XMClib/XMC_Peripheral_Library_v2.1.16/ThirdPartyLibraries/USBlib/USB/Class/Device/CDCClassDevice.c **** 				Endpoint_ClearStatusStage();
  85:/opt/XMClib/XMC_Peripheral_Library_v2.1.16/ThirdPartyLibraries/USBlib/USB/Class/Device/CDCClassDevice.c **** 
  86:/opt/XMClib/XMC_Peripheral_Library_v2.1.16/ThirdPartyLibraries/USBlib/USB/Class/Device/CDCClassDevice.c **** 				EVENT_CDC_Device_LineEncodingChanged(CDCInterfaceInfo);
  87:/opt/XMClib/XMC_Peripheral_Library_v2.1.16/ThirdPartyLibraries/USBlib/USB/Class/Device/CDCClassDevice.c **** 			}
  88:/opt/XMClib/XMC_Peripheral_Library_v2.1.16/ThirdPartyLibraries/USBlib/USB/Class/Device/CDCClassDevice.c **** 
  89:/opt/XMClib/XMC_Peripheral_Library_v2.1.16/ThirdPartyLibraries/USBlib/USB/Class/Device/CDCClassDevice.c **** 			break;
  90:/opt/XMClib/XMC_Peripheral_Library_v2.1.16/ThirdPartyLibraries/USBlib/USB/Class/Device/CDCClassDevice.c **** 		case CDC_REQ_SetControlLineState:
  91:/opt/XMClib/XMC_Peripheral_Library_v2.1.16/ThirdPartyLibraries/USBlib/USB/Class/Device/CDCClassDevice.c **** 			if (USB_ControlRequest.bmRequestType == (REQDIR_HOSTTODEVICE | REQTYPE_CLASS | REQREC_INTERFACE)
  92:/opt/XMClib/XMC_Peripheral_Library_v2.1.16/ThirdPartyLibraries/USBlib/USB/Class/Device/CDCClassDevice.c **** 			{
  93:/opt/XMClib/XMC_Peripheral_Library_v2.1.16/ThirdPartyLibraries/USBlib/USB/Class/Device/CDCClassDevice.c **** 				Endpoint_ClearSETUP();
  94:/opt/XMClib/XMC_Peripheral_Library_v2.1.16/ThirdPartyLibraries/USBlib/USB/Class/Device/CDCClassDevice.c **** 				Endpoint_ClearStatusStage();
  95:/opt/XMClib/XMC_Peripheral_Library_v2.1.16/ThirdPartyLibraries/USBlib/USB/Class/Device/CDCClassDevice.c **** 
  96:/opt/XMClib/XMC_Peripheral_Library_v2.1.16/ThirdPartyLibraries/USBlib/USB/Class/Device/CDCClassDevice.c **** 				CDCInterfaceInfo->State.ControlLineStates.HostToDevice = USB_ControlRequest.wValue;
  97:/opt/XMClib/XMC_Peripheral_Library_v2.1.16/ThirdPartyLibraries/USBlib/USB/Class/Device/CDCClassDevice.c **** 
  98:/opt/XMClib/XMC_Peripheral_Library_v2.1.16/ThirdPartyLibraries/USBlib/USB/Class/Device/CDCClassDevice.c **** 				EVENT_CDC_Device_ControLineStateChanged(CDCInterfaceInfo);
  99:/opt/XMClib/XMC_Peripheral_Library_v2.1.16/ThirdPartyLibraries/USBlib/USB/Class/Device/CDCClassDevice.c **** 			}
 100:/opt/XMClib/XMC_Peripheral_Library_v2.1.16/ThirdPartyLibraries/USBlib/USB/Class/Device/CDCClassDevice.c **** 
 101:/opt/XMClib/XMC_Peripheral_Library_v2.1.16/ThirdPartyLibraries/USBlib/USB/Class/Device/CDCClassDevice.c **** 			break;
 102:/opt/XMClib/XMC_Peripheral_Library_v2.1.16/ThirdPartyLibraries/USBlib/USB/Class/Device/CDCClassDevice.c **** 		case CDC_REQ_SendBreak:
 103:/opt/XMClib/XMC_Peripheral_Library_v2.1.16/ThirdPartyLibraries/USBlib/USB/Class/Device/CDCClassDevice.c **** 			if (USB_ControlRequest.bmRequestType == (REQDIR_HOSTTODEVICE | REQTYPE_CLASS | REQREC_INTERFACE)
 104:/opt/XMClib/XMC_Peripheral_Library_v2.1.16/ThirdPartyLibraries/USBlib/USB/Class/Device/CDCClassDevice.c **** 			{
 105:/opt/XMClib/XMC_Peripheral_Library_v2.1.16/ThirdPartyLibraries/USBlib/USB/Class/Device/CDCClassDevice.c **** 				Endpoint_ClearSETUP();
 106:/opt/XMClib/XMC_Peripheral_Library_v2.1.16/ThirdPartyLibraries/USBlib/USB/Class/Device/CDCClassDevice.c **** 				Endpoint_ClearStatusStage();
 107:/opt/XMClib/XMC_Peripheral_Library_v2.1.16/ThirdPartyLibraries/USBlib/USB/Class/Device/CDCClassDevice.c **** 
 108:/opt/XMClib/XMC_Peripheral_Library_v2.1.16/ThirdPartyLibraries/USBlib/USB/Class/Device/CDCClassDevice.c **** 				EVENT_CDC_Device_BreakSent(CDCInterfaceInfo, (uint8_t)USB_ControlRequest.wValue);
 109:/opt/XMClib/XMC_Peripheral_Library_v2.1.16/ThirdPartyLibraries/USBlib/USB/Class/Device/CDCClassDevice.c **** 			}
 110:/opt/XMClib/XMC_Peripheral_Library_v2.1.16/ThirdPartyLibraries/USBlib/USB/Class/Device/CDCClassDevice.c **** 
 111:/opt/XMClib/XMC_Peripheral_Library_v2.1.16/ThirdPartyLibraries/USBlib/USB/Class/Device/CDCClassDevice.c **** 			break;
 112:/opt/XMClib/XMC_Peripheral_Library_v2.1.16/ThirdPartyLibraries/USBlib/USB/Class/Device/CDCClassDevice.c **** 	}
 113:/opt/XMClib/XMC_Peripheral_Library_v2.1.16/ThirdPartyLibraries/USBlib/USB/Class/Device/CDCClassDevice.c **** }
 114:/opt/XMClib/XMC_Peripheral_Library_v2.1.16/ThirdPartyLibraries/USBlib/USB/Class/Device/CDCClassDevice.c **** 
 115:/opt/XMClib/XMC_Peripheral_Library_v2.1.16/ThirdPartyLibraries/USBlib/USB/Class/Device/CDCClassDevice.c **** bool CDC_Device_ConfigureEndpoints(USB_ClassInfo_CDC_Device_t* const CDCInterfaceInfo)
 116:/opt/XMClib/XMC_Peripheral_Library_v2.1.16/ThirdPartyLibraries/USBlib/USB/Class/Device/CDCClassDevice.c **** {
  29              		.loc 1 116 1 view -0
  30              		.cfi_startproc
  31              		@ args = 0, pretend = 0, frame = 0
  32              		@ frame_needed = 0, uses_anonymous_args = 0
  33              		.loc 1 116 1 is_stmt 0 view .LVU1
  34 0000 10B5     		push	{r4, lr}
  35              	.LCFI0:
  36              		.cfi_def_cfa_offset 8
  37              		.cfi_offset 4, -8
  38              		.cfi_offset 14, -4
  39 0002 0446     		mov	r4, r0
 117:/opt/XMClib/XMC_Peripheral_Library_v2.1.16/ThirdPartyLibraries/USBlib/USB/Class/Device/CDCClassDevice.c **** 	memset(&CDCInterfaceInfo->State, 0x00, sizeof(CDCInterfaceInfo->State));
  40              		.loc 1 117 2 is_stmt 1 view .LVU2
  41 0004 0023     		movs	r3, #0
  42 0006 4361     		str	r3, [r0, #20]	@ unaligned
  43 0008 8361     		str	r3, [r0, #24]	@ unaligned
  44 000a C361     		str	r3, [r0, #28]	@ unaligned
 118:/opt/XMClib/XMC_Peripheral_Library_v2.1.16/ThirdPartyLibraries/USBlib/USB/Class/Device/CDCClassDevice.c **** 
 119:/opt/XMClib/XMC_Peripheral_Library_v2.1.16/ThirdPartyLibraries/USBlib/USB/Class/Device/CDCClassDevice.c **** 	CDCInterfaceInfo->Config.DataINEndpoint.Type       = EP_TYPE_BULK;
  45              		.loc 1 119 2 view .LVU3
  46              		.loc 1 119 53 is_stmt 0 view .LVU4
  47 000c 0223     		movs	r3, #2
  48 000e 8371     		strb	r3, [r0, #6]
 120:/opt/XMClib/XMC_Peripheral_Library_v2.1.16/ThirdPartyLibraries/USBlib/USB/Class/Device/CDCClassDevice.c **** 	CDCInterfaceInfo->Config.DataOUTEndpoint.Type      = EP_TYPE_BULK;
  49              		.loc 1 120 2 is_stmt 1 view .LVU5
  50              		.loc 1 120 53 is_stmt 0 view .LVU6
  51 0010 0373     		strb	r3, [r0, #12]
 121:/opt/XMClib/XMC_Peripheral_Library_v2.1.16/ThirdPartyLibraries/USBlib/USB/Class/Device/CDCClassDevice.c **** 	CDCInterfaceInfo->Config.NotificationEndpoint.Type = EP_TYPE_INTERRUPT;
  52              		.loc 1 121 2 is_stmt 1 view .LVU7
  53              		.loc 1 121 53 is_stmt 0 view .LVU8
  54 0012 0323     		movs	r3, #3
  55 0014 8374     		strb	r3, [r0, #18]
 122:/opt/XMClib/XMC_Peripheral_Library_v2.1.16/ThirdPartyLibraries/USBlib/USB/Class/Device/CDCClassDevice.c **** 
 123:/opt/XMClib/XMC_Peripheral_Library_v2.1.16/ThirdPartyLibraries/USBlib/USB/Class/Device/CDCClassDevice.c **** 	if (!(Endpoint_ConfigureEndpointTable(&CDCInterfaceInfo->Config.DataINEndpoint, 1)))
  56              		.loc 1 123 2 is_stmt 1 view .LVU9
  57              		.loc 1 123 8 is_stmt 0 view .LVU10
  58 0016 0121     		movs	r1, #1
  59 0018 0230     		adds	r0, r0, #2
  60              	.LVL1:
  61              		.loc 1 123 8 view .LVU11
  62 001a FFF7FEFF 		bl	Endpoint_ConfigureEndpointTable
  63              	.LVL2:
  64              		.loc 1 123 5 view .LVU12
  65 001e 0346     		mov	r3, r0
  66 0020 08B9     		cbnz	r0, .L4
  67              	.L2:
 124:/opt/XMClib/XMC_Peripheral_Library_v2.1.16/ThirdPartyLibraries/USBlib/USB/Class/Device/CDCClassDevice.c **** 	  return false;
 125:/opt/XMClib/XMC_Peripheral_Library_v2.1.16/ThirdPartyLibraries/USBlib/USB/Class/Device/CDCClassDevice.c **** 
 126:/opt/XMClib/XMC_Peripheral_Library_v2.1.16/ThirdPartyLibraries/USBlib/USB/Class/Device/CDCClassDevice.c **** 	if (!(Endpoint_ConfigureEndpointTable(&CDCInterfaceInfo->Config.DataOUTEndpoint, 1)))
 127:/opt/XMClib/XMC_Peripheral_Library_v2.1.16/ThirdPartyLibraries/USBlib/USB/Class/Device/CDCClassDevice.c **** 	  return false;
 128:/opt/XMClib/XMC_Peripheral_Library_v2.1.16/ThirdPartyLibraries/USBlib/USB/Class/Device/CDCClassDevice.c **** 
 129:/opt/XMClib/XMC_Peripheral_Library_v2.1.16/ThirdPartyLibraries/USBlib/USB/Class/Device/CDCClassDevice.c **** 	if (!(Endpoint_ConfigureEndpointTable(&CDCInterfaceInfo->Config.NotificationEndpoint, 1)))
 130:/opt/XMClib/XMC_Peripheral_Library_v2.1.16/ThirdPartyLibraries/USBlib/USB/Class/Device/CDCClassDevice.c **** 	  return false;
 131:/opt/XMClib/XMC_Peripheral_Library_v2.1.16/ThirdPartyLibraries/USBlib/USB/Class/Device/CDCClassDevice.c **** 
 132:/opt/XMClib/XMC_Peripheral_Library_v2.1.16/ThirdPartyLibraries/USBlib/USB/Class/Device/CDCClassDevice.c **** 	return true;
 133:/opt/XMClib/XMC_Peripheral_Library_v2.1.16/ThirdPartyLibraries/USBlib/USB/Class/Device/CDCClassDevice.c **** }
  68              		.loc 1 133 1 view .LVU13
  69 0022 1846     		mov	r0, r3
  70 0024 10BD     		pop	{r4, pc}
  71              	.LVL3:
  72              	.L4:
 126:/opt/XMClib/XMC_Peripheral_Library_v2.1.16/ThirdPartyLibraries/USBlib/USB/Class/Device/CDCClassDevice.c **** 	  return false;
  73              		.loc 1 126 2 is_stmt 1 view .LVU14
 126:/opt/XMClib/XMC_Peripheral_Library_v2.1.16/ThirdPartyLibraries/USBlib/USB/Class/Device/CDCClassDevice.c **** 	  return false;
  74              		.loc 1 126 8 is_stmt 0 view .LVU15
  75 0026 0121     		movs	r1, #1
  76 0028 04F10800 		add	r0, r4, #8
  77 002c FFF7FEFF 		bl	Endpoint_ConfigureEndpointTable
  78              	.LVL4:
 126:/opt/XMClib/XMC_Peripheral_Library_v2.1.16/ThirdPartyLibraries/USBlib/USB/Class/Device/CDCClassDevice.c **** 	  return false;
  79              		.loc 1 126 5 view .LVU16
  80 0030 0346     		mov	r3, r0
  81 0032 0028     		cmp	r0, #0
  82 0034 F5D0     		beq	.L2
 129:/opt/XMClib/XMC_Peripheral_Library_v2.1.16/ThirdPartyLibraries/USBlib/USB/Class/Device/CDCClassDevice.c **** 	  return false;
  83              		.loc 1 129 2 is_stmt 1 view .LVU17
 129:/opt/XMClib/XMC_Peripheral_Library_v2.1.16/ThirdPartyLibraries/USBlib/USB/Class/Device/CDCClassDevice.c **** 	  return false;
  84              		.loc 1 129 8 is_stmt 0 view .LVU18
  85 0036 0121     		movs	r1, #1
  86 0038 04F10E00 		add	r0, r4, #14
  87 003c FFF7FEFF 		bl	Endpoint_ConfigureEndpointTable
  88              	.LVL5:
  89 0040 0346     		mov	r3, r0
  90 0042 EEE7     		b	.L2
  91              		.cfi_endproc
  92              	.LFE194:
  94              		.section	.text.CDC_Device_SendString,"ax",%progbits
  95              		.align	1
  96              		.global	CDC_Device_SendString
  97              		.syntax unified
  98              		.thumb
  99              		.thumb_func
 100              		.fpu fpv4-sp-d16
 102              	CDC_Device_SendString:
 103              	.LVL6:
 104              	.LFB196:
 134:/opt/XMClib/XMC_Peripheral_Library_v2.1.16/ThirdPartyLibraries/USBlib/USB/Class/Device/CDCClassDevice.c **** 
 135:/opt/XMClib/XMC_Peripheral_Library_v2.1.16/ThirdPartyLibraries/USBlib/USB/Class/Device/CDCClassDevice.c **** void CDC_Device_USBTask(USB_ClassInfo_CDC_Device_t* const CDCInterfaceInfo)
 136:/opt/XMClib/XMC_Peripheral_Library_v2.1.16/ThirdPartyLibraries/USBlib/USB/Class/Device/CDCClassDevice.c **** {
 137:/opt/XMClib/XMC_Peripheral_Library_v2.1.16/ThirdPartyLibraries/USBlib/USB/Class/Device/CDCClassDevice.c **** 	if ((USB_DeviceState != DEVICE_STATE_Configured) || !(CDCInterfaceInfo->State.LineEncoding.BaudRat
 138:/opt/XMClib/XMC_Peripheral_Library_v2.1.16/ThirdPartyLibraries/USBlib/USB/Class/Device/CDCClassDevice.c **** 	  return;
 139:/opt/XMClib/XMC_Peripheral_Library_v2.1.16/ThirdPartyLibraries/USBlib/USB/Class/Device/CDCClassDevice.c **** 
 140:/opt/XMClib/XMC_Peripheral_Library_v2.1.16/ThirdPartyLibraries/USBlib/USB/Class/Device/CDCClassDevice.c **** 	#if !defined(NO_CLASS_DRIVER_AUTOFLUSH)
 141:/opt/XMClib/XMC_Peripheral_Library_v2.1.16/ThirdPartyLibraries/USBlib/USB/Class/Device/CDCClassDevice.c **** 	Endpoint_SelectEndpoint(CDCInterfaceInfo->Config.DataINEndpoint.Address);
 142:/opt/XMClib/XMC_Peripheral_Library_v2.1.16/ThirdPartyLibraries/USBlib/USB/Class/Device/CDCClassDevice.c **** 
 143:/opt/XMClib/XMC_Peripheral_Library_v2.1.16/ThirdPartyLibraries/USBlib/USB/Class/Device/CDCClassDevice.c **** 	if (Endpoint_IsINReady())
 144:/opt/XMClib/XMC_Peripheral_Library_v2.1.16/ThirdPartyLibraries/USBlib/USB/Class/Device/CDCClassDevice.c **** 	  CDC_Device_Flush(CDCInterfaceInfo);
 145:/opt/XMClib/XMC_Peripheral_Library_v2.1.16/ThirdPartyLibraries/USBlib/USB/Class/Device/CDCClassDevice.c **** 	#endif
 146:/opt/XMClib/XMC_Peripheral_Library_v2.1.16/ThirdPartyLibraries/USBlib/USB/Class/Device/CDCClassDevice.c **** }
 147:/opt/XMClib/XMC_Peripheral_Library_v2.1.16/ThirdPartyLibraries/USBlib/USB/Class/Device/CDCClassDevice.c **** 
 148:/opt/XMClib/XMC_Peripheral_Library_v2.1.16/ThirdPartyLibraries/USBlib/USB/Class/Device/CDCClassDevice.c **** uint8_t CDC_Device_SendString(USB_ClassInfo_CDC_Device_t* const CDCInterfaceInfo,
 149:/opt/XMClib/XMC_Peripheral_Library_v2.1.16/ThirdPartyLibraries/USBlib/USB/Class/Device/CDCClassDevice.c ****                               const char* const String)
 150:/opt/XMClib/XMC_Peripheral_Library_v2.1.16/ThirdPartyLibraries/USBlib/USB/Class/Device/CDCClassDevice.c **** {
 105              		.loc 1 150 1 is_stmt 1 view -0
 106              		.cfi_startproc
 107              		@ args = 0, pretend = 0, frame = 0
 108              		@ frame_needed = 0, uses_anonymous_args = 0
 151:/opt/XMClib/XMC_Peripheral_Library_v2.1.16/ThirdPartyLibraries/USBlib/USB/Class/Device/CDCClassDevice.c **** 	if ((USB_DeviceState != DEVICE_STATE_Configured) || !(CDCInterfaceInfo->State.LineEncoding.BaudRat
 109              		.loc 1 151 2 view .LVU20
 110              		.loc 1 151 23 is_stmt 0 view .LVU21
 111 0000 0F4B     		ldr	r3, .L13
 112 0002 1B78     		ldrb	r3, [r3]	@ zero_extendqisi2
 113 0004 DBB2     		uxtb	r3, r3
 114              		.loc 1 151 5 view .LVU22
 115 0006 042B     		cmp	r3, #4
 116 0008 16D1     		bne	.L7
 150:/opt/XMClib/XMC_Peripheral_Library_v2.1.16/ThirdPartyLibraries/USBlib/USB/Class/Device/CDCClassDevice.c **** 	if ((USB_DeviceState != DEVICE_STATE_Configured) || !(CDCInterfaceInfo->State.LineEncoding.BaudRat
 117              		.loc 1 150 1 discriminator 1 view .LVU23
 118 000a 10B5     		push	{r4, lr}
 119              	.LCFI1:
 120              		.cfi_def_cfa_offset 8
 121              		.cfi_offset 4, -8
 122              		.cfi_offset 14, -4
 123 000c 0C46     		mov	r4, r1
 124              		.loc 1 151 92 discriminator 1 view .LVU24
 125 000e 8369     		ldr	r3, [r0, #24]	@ unaligned
 126              		.loc 1 151 51 discriminator 1 view .LVU25
 127 0010 A3B1     		cbz	r3, .L8
 152:/opt/XMClib/XMC_Peripheral_Library_v2.1.16/ThirdPartyLibraries/USBlib/USB/Class/Device/CDCClassDevice.c **** 	  return ENDPOINT_RWSTREAM_DeviceDisconnected;
 153:/opt/XMClib/XMC_Peripheral_Library_v2.1.16/ThirdPartyLibraries/USBlib/USB/Class/Device/CDCClassDevice.c **** 
 154:/opt/XMClib/XMC_Peripheral_Library_v2.1.16/ThirdPartyLibraries/USBlib/USB/Class/Device/CDCClassDevice.c **** 	Endpoint_SelectEndpoint(CDCInterfaceInfo->Config.DataINEndpoint.Address);
 128              		.loc 1 154 2 is_stmt 1 view .LVU26
 129 0012 8378     		ldrb	r3, [r0, #2]	@ zero_extendqisi2
 130              	.LVL7:
 131              	.LBB57:
 132              	.LBI57:
 133              		.file 2 "/opt/XMClib/XMC_Peripheral_Library_v2.1.16/ThirdPartyLibraries/USBlib/USB/Class/Device/..
   1:/opt/XMClib/XMC_Peripheral_Library_v2.1.16/ThirdPartyLibraries/USBlib/USB/Class/Device/../../Core/XMC4000/../XMC4000/Endpoint_XMC4000.h **** /*
   2:/opt/XMClib/XMC_Peripheral_Library_v2.1.16/ThirdPartyLibraries/USBlib/USB/Class/Device/../../Core/XMC4000/../XMC4000/Endpoint_XMC4000.h ****              LUFA Library
   3:/opt/XMClib/XMC_Peripheral_Library_v2.1.16/ThirdPartyLibraries/USBlib/USB/Class/Device/../../Core/XMC4000/../XMC4000/Endpoint_XMC4000.h ****      Copyright (C) Dean Camera, 2013.
   4:/opt/XMClib/XMC_Peripheral_Library_v2.1.16/ThirdPartyLibraries/USBlib/USB/Class/Device/../../Core/XMC4000/../XMC4000/Endpoint_XMC4000.h **** 
   5:/opt/XMClib/XMC_Peripheral_Library_v2.1.16/ThirdPartyLibraries/USBlib/USB/Class/Device/../../Core/XMC4000/../XMC4000/Endpoint_XMC4000.h ****   dean [at] fourwalledcubicle [dot] com
   6:/opt/XMClib/XMC_Peripheral_Library_v2.1.16/ThirdPartyLibraries/USBlib/USB/Class/Device/../../Core/XMC4000/../XMC4000/Endpoint_XMC4000.h ****            www.lufa-lib.org
   7:/opt/XMClib/XMC_Peripheral_Library_v2.1.16/ThirdPartyLibraries/USBlib/USB/Class/Device/../../Core/XMC4000/../XMC4000/Endpoint_XMC4000.h **** */
   8:/opt/XMClib/XMC_Peripheral_Library_v2.1.16/ThirdPartyLibraries/USBlib/USB/Class/Device/../../Core/XMC4000/../XMC4000/Endpoint_XMC4000.h **** 
   9:/opt/XMClib/XMC_Peripheral_Library_v2.1.16/ThirdPartyLibraries/USBlib/USB/Class/Device/../../Core/XMC4000/../XMC4000/Endpoint_XMC4000.h **** /*
  10:/opt/XMClib/XMC_Peripheral_Library_v2.1.16/ThirdPartyLibraries/USBlib/USB/Class/Device/../../Core/XMC4000/../XMC4000/Endpoint_XMC4000.h ****   Copyright 2013  Dean Camera (dean [at] fourwalledcubicle [dot] com)
  11:/opt/XMClib/XMC_Peripheral_Library_v2.1.16/ThirdPartyLibraries/USBlib/USB/Class/Device/../../Core/XMC4000/../XMC4000/Endpoint_XMC4000.h **** 
  12:/opt/XMClib/XMC_Peripheral_Library_v2.1.16/ThirdPartyLibraries/USBlib/USB/Class/Device/../../Core/XMC4000/../XMC4000/Endpoint_XMC4000.h ****   Permission to use, copy, modify, distribute, and sell this
  13:/opt/XMClib/XMC_Peripheral_Library_v2.1.16/ThirdPartyLibraries/USBlib/USB/Class/Device/../../Core/XMC4000/../XMC4000/Endpoint_XMC4000.h ****   software and its documentation for any purpose is hereby granted
  14:/opt/XMClib/XMC_Peripheral_Library_v2.1.16/ThirdPartyLibraries/USBlib/USB/Class/Device/../../Core/XMC4000/../XMC4000/Endpoint_XMC4000.h ****   without fee, provided that the above copyright notice appear in
  15:/opt/XMClib/XMC_Peripheral_Library_v2.1.16/ThirdPartyLibraries/USBlib/USB/Class/Device/../../Core/XMC4000/../XMC4000/Endpoint_XMC4000.h ****   all copies and that both that the copyright notice and this
  16:/opt/XMClib/XMC_Peripheral_Library_v2.1.16/ThirdPartyLibraries/USBlib/USB/Class/Device/../../Core/XMC4000/../XMC4000/Endpoint_XMC4000.h ****   permission notice and warranty disclaimer appear in supporting
  17:/opt/XMClib/XMC_Peripheral_Library_v2.1.16/ThirdPartyLibraries/USBlib/USB/Class/Device/../../Core/XMC4000/../XMC4000/Endpoint_XMC4000.h ****   documentation, and that the name of the author not be used in
  18:/opt/XMClib/XMC_Peripheral_Library_v2.1.16/ThirdPartyLibraries/USBlib/USB/Class/Device/../../Core/XMC4000/../XMC4000/Endpoint_XMC4000.h ****   advertising or publicity pertaining to distribution of the
  19:/opt/XMClib/XMC_Peripheral_Library_v2.1.16/ThirdPartyLibraries/USBlib/USB/Class/Device/../../Core/XMC4000/../XMC4000/Endpoint_XMC4000.h ****   software without specific, written prior permission.
  20:/opt/XMClib/XMC_Peripheral_Library_v2.1.16/ThirdPartyLibraries/USBlib/USB/Class/Device/../../Core/XMC4000/../XMC4000/Endpoint_XMC4000.h **** 
  21:/opt/XMClib/XMC_Peripheral_Library_v2.1.16/ThirdPartyLibraries/USBlib/USB/Class/Device/../../Core/XMC4000/../XMC4000/Endpoint_XMC4000.h ****   The author disclaims all warranties with regard to this
  22:/opt/XMClib/XMC_Peripheral_Library_v2.1.16/ThirdPartyLibraries/USBlib/USB/Class/Device/../../Core/XMC4000/../XMC4000/Endpoint_XMC4000.h ****   software, including all implied warranties of merchantability
  23:/opt/XMClib/XMC_Peripheral_Library_v2.1.16/ThirdPartyLibraries/USBlib/USB/Class/Device/../../Core/XMC4000/../XMC4000/Endpoint_XMC4000.h ****   and fitness.  In no event shall the author be liable for any
  24:/opt/XMClib/XMC_Peripheral_Library_v2.1.16/ThirdPartyLibraries/USBlib/USB/Class/Device/../../Core/XMC4000/../XMC4000/Endpoint_XMC4000.h ****   special, indirect or consequential damages or any damages
  25:/opt/XMClib/XMC_Peripheral_Library_v2.1.16/ThirdPartyLibraries/USBlib/USB/Class/Device/../../Core/XMC4000/../XMC4000/Endpoint_XMC4000.h ****   whatsoever resulting from loss of use, data or profits, whether
  26:/opt/XMClib/XMC_Peripheral_Library_v2.1.16/ThirdPartyLibraries/USBlib/USB/Class/Device/../../Core/XMC4000/../XMC4000/Endpoint_XMC4000.h ****   in an action of contract, negligence or other tortious action,
  27:/opt/XMClib/XMC_Peripheral_Library_v2.1.16/ThirdPartyLibraries/USBlib/USB/Class/Device/../../Core/XMC4000/../XMC4000/Endpoint_XMC4000.h ****   arising out of or in connection with the use or performance of
  28:/opt/XMClib/XMC_Peripheral_Library_v2.1.16/ThirdPartyLibraries/USBlib/USB/Class/Device/../../Core/XMC4000/../XMC4000/Endpoint_XMC4000.h ****   this software.
  29:/opt/XMClib/XMC_Peripheral_Library_v2.1.16/ThirdPartyLibraries/USBlib/USB/Class/Device/../../Core/XMC4000/../XMC4000/Endpoint_XMC4000.h **** */
  30:/opt/XMClib/XMC_Peripheral_Library_v2.1.16/ThirdPartyLibraries/USBlib/USB/Class/Device/../../Core/XMC4000/../XMC4000/Endpoint_XMC4000.h **** /*******************************************************************************
  31:/opt/XMClib/XMC_Peripheral_Library_v2.1.16/ThirdPartyLibraries/USBlib/USB/Class/Device/../../Core/XMC4000/../XMC4000/Endpoint_XMC4000.h ****  *
  32:/opt/XMClib/XMC_Peripheral_Library_v2.1.16/ThirdPartyLibraries/USBlib/USB/Class/Device/../../Core/XMC4000/../XMC4000/Endpoint_XMC4000.h ****  * Copyright (C) 2013 Infineon Technologies AG. All rights reserved.
  33:/opt/XMClib/XMC_Peripheral_Library_v2.1.16/ThirdPartyLibraries/USBlib/USB/Class/Device/../../Core/XMC4000/../XMC4000/Endpoint_XMC4000.h ****  *
  34:/opt/XMClib/XMC_Peripheral_Library_v2.1.16/ThirdPartyLibraries/USBlib/USB/Class/Device/../../Core/XMC4000/../XMC4000/Endpoint_XMC4000.h ****  * Infineon Technologies AG (Infineon) is supplying this software for use with
  35:/opt/XMClib/XMC_Peripheral_Library_v2.1.16/ThirdPartyLibraries/USBlib/USB/Class/Device/../../Core/XMC4000/../XMC4000/Endpoint_XMC4000.h ****  * Infineon's microcontrollers.
  36:/opt/XMClib/XMC_Peripheral_Library_v2.1.16/ThirdPartyLibraries/USBlib/USB/Class/Device/../../Core/XMC4000/../XMC4000/Endpoint_XMC4000.h ****  * This file can be freely distributed within development tools that are
  37:/opt/XMClib/XMC_Peripheral_Library_v2.1.16/ThirdPartyLibraries/USBlib/USB/Class/Device/../../Core/XMC4000/../XMC4000/Endpoint_XMC4000.h ****  * supporting such microcontrollers.
  38:/opt/XMClib/XMC_Peripheral_Library_v2.1.16/ThirdPartyLibraries/USBlib/USB/Class/Device/../../Core/XMC4000/../XMC4000/Endpoint_XMC4000.h ****  *
  39:/opt/XMClib/XMC_Peripheral_Library_v2.1.16/ThirdPartyLibraries/USBlib/USB/Class/Device/../../Core/XMC4000/../XMC4000/Endpoint_XMC4000.h ****  * THIS SOFTWARE IS PROVIDED "AS IS".  NO WARRANTIES, WHETHER EXPRESS, IMPLIED
  40:/opt/XMClib/XMC_Peripheral_Library_v2.1.16/ThirdPartyLibraries/USBlib/USB/Class/Device/../../Core/XMC4000/../XMC4000/Endpoint_XMC4000.h ****  * OR STATUTORY, INCLUDING, BUT NOT LIMITED TO, IMPLIED WARRANTIES OF
  41:/opt/XMClib/XMC_Peripheral_Library_v2.1.16/ThirdPartyLibraries/USBlib/USB/Class/Device/../../Core/XMC4000/../XMC4000/Endpoint_XMC4000.h ****  * MERCHANTABILITY AND FITNESS FOR A PARTICULAR PURPOSE APPLY TO THIS SOFTWARE.
  42:/opt/XMClib/XMC_Peripheral_Library_v2.1.16/ThirdPartyLibraries/USBlib/USB/Class/Device/../../Core/XMC4000/../XMC4000/Endpoint_XMC4000.h ****  * INFINEON SHALL NOT, IN ANY CIRCUMSTANCES, BE LIABLE FOR SPECIAL, INCIDENTAL,
  43:/opt/XMClib/XMC_Peripheral_Library_v2.1.16/ThirdPartyLibraries/USBlib/USB/Class/Device/../../Core/XMC4000/../XMC4000/Endpoint_XMC4000.h ****  * OR CONSEQUENTIAL DAMAGES, FOR ANY REASON WHATSOEVER.
  44:/opt/XMClib/XMC_Peripheral_Library_v2.1.16/ThirdPartyLibraries/USBlib/USB/Class/Device/../../Core/XMC4000/../XMC4000/Endpoint_XMC4000.h ****  *
  45:/opt/XMClib/XMC_Peripheral_Library_v2.1.16/ThirdPartyLibraries/USBlib/USB/Class/Device/../../Core/XMC4000/../XMC4000/Endpoint_XMC4000.h ****  */
  46:/opt/XMClib/XMC_Peripheral_Library_v2.1.16/ThirdPartyLibraries/USBlib/USB/Class/Device/../../Core/XMC4000/../XMC4000/Endpoint_XMC4000.h **** 
  47:/opt/XMClib/XMC_Peripheral_Library_v2.1.16/ThirdPartyLibraries/USBlib/USB/Class/Device/../../Core/XMC4000/../XMC4000/Endpoint_XMC4000.h **** /** \file
  48:/opt/XMClib/XMC_Peripheral_Library_v2.1.16/ThirdPartyLibraries/USBlib/USB/Class/Device/../../Core/XMC4000/../XMC4000/Endpoint_XMC4000.h ****  *
  49:/opt/XMClib/XMC_Peripheral_Library_v2.1.16/ThirdPartyLibraries/USBlib/USB/Class/Device/../../Core/XMC4000/../XMC4000/Endpoint_XMC4000.h ****  *  Functions, macros, variables, enums and types related to data reading and writing of primitive 
  50:/opt/XMClib/XMC_Peripheral_Library_v2.1.16/ThirdPartyLibraries/USBlib/USB/Class/Device/../../Core/XMC4000/../XMC4000/Endpoint_XMC4000.h ****  *  from and to endpoints.
  51:/opt/XMClib/XMC_Peripheral_Library_v2.1.16/ThirdPartyLibraries/USBlib/USB/Class/Device/../../Core/XMC4000/../XMC4000/Endpoint_XMC4000.h ****  */
  52:/opt/XMClib/XMC_Peripheral_Library_v2.1.16/ThirdPartyLibraries/USBlib/USB/Class/Device/../../Core/XMC4000/../XMC4000/Endpoint_XMC4000.h **** 
  53:/opt/XMClib/XMC_Peripheral_Library_v2.1.16/ThirdPartyLibraries/USBlib/USB/Class/Device/../../Core/XMC4000/../XMC4000/Endpoint_XMC4000.h **** /** \ingroup Group_EndpointPacketManagement
  54:/opt/XMClib/XMC_Peripheral_Library_v2.1.16/ThirdPartyLibraries/USBlib/USB/Class/Device/../../Core/XMC4000/../XMC4000/Endpoint_XMC4000.h ****  *
  55:/opt/XMClib/XMC_Peripheral_Library_v2.1.16/ThirdPartyLibraries/USBlib/USB/Class/Device/../../Core/XMC4000/../XMC4000/Endpoint_XMC4000.h ****  *  Functions, macros, variables, enums and types related to packet management of endpoints.
  56:/opt/XMClib/XMC_Peripheral_Library_v2.1.16/ThirdPartyLibraries/USBlib/USB/Class/Device/../../Core/XMC4000/../XMC4000/Endpoint_XMC4000.h ****  */
  57:/opt/XMClib/XMC_Peripheral_Library_v2.1.16/ThirdPartyLibraries/USBlib/USB/Class/Device/../../Core/XMC4000/../XMC4000/Endpoint_XMC4000.h **** 
  58:/opt/XMClib/XMC_Peripheral_Library_v2.1.16/ThirdPartyLibraries/USBlib/USB/Class/Device/../../Core/XMC4000/../XMC4000/Endpoint_XMC4000.h **** /** \ingroup Group_EndpointManagement
  59:/opt/XMClib/XMC_Peripheral_Library_v2.1.16/ThirdPartyLibraries/USBlib/USB/Class/Device/../../Core/XMC4000/../XMC4000/Endpoint_XMC4000.h ****  *  Functions, macros and enums related to endpoint management when in USB Device mode. This
  60:/opt/XMClib/XMC_Peripheral_Library_v2.1.16/ThirdPartyLibraries/USBlib/USB/Class/Device/../../Core/XMC4000/../XMC4000/Endpoint_XMC4000.h ****  *  module contains the endpoint management macros, as well as endpoint interrupt and data
  61:/opt/XMClib/XMC_Peripheral_Library_v2.1.16/ThirdPartyLibraries/USBlib/USB/Class/Device/../../Core/XMC4000/../XMC4000/Endpoint_XMC4000.h ****  *  send/receive functions for various data types.
  62:/opt/XMClib/XMC_Peripheral_Library_v2.1.16/ThirdPartyLibraries/USBlib/USB/Class/Device/../../Core/XMC4000/../XMC4000/Endpoint_XMC4000.h ****  *
  63:/opt/XMClib/XMC_Peripheral_Library_v2.1.16/ThirdPartyLibraries/USBlib/USB/Class/Device/../../Core/XMC4000/../XMC4000/Endpoint_XMC4000.h ****  *  @{
  64:/opt/XMClib/XMC_Peripheral_Library_v2.1.16/ThirdPartyLibraries/USBlib/USB/Class/Device/../../Core/XMC4000/../XMC4000/Endpoint_XMC4000.h ****  */
  65:/opt/XMClib/XMC_Peripheral_Library_v2.1.16/ThirdPartyLibraries/USBlib/USB/Class/Device/../../Core/XMC4000/../XMC4000/Endpoint_XMC4000.h **** 
  66:/opt/XMClib/XMC_Peripheral_Library_v2.1.16/ThirdPartyLibraries/USBlib/USB/Class/Device/../../Core/XMC4000/../XMC4000/Endpoint_XMC4000.h **** #ifndef ENDPOINT_XMC4000_H_
  67:/opt/XMClib/XMC_Peripheral_Library_v2.1.16/ThirdPartyLibraries/USBlib/USB/Class/Device/../../Core/XMC4000/../XMC4000/Endpoint_XMC4000.h **** #define ENDPOINT_XMC4000_H_
  68:/opt/XMClib/XMC_Peripheral_Library_v2.1.16/ThirdPartyLibraries/USBlib/USB/Class/Device/../../Core/XMC4000/../XMC4000/Endpoint_XMC4000.h **** 
  69:/opt/XMClib/XMC_Peripheral_Library_v2.1.16/ThirdPartyLibraries/USBlib/USB/Class/Device/../../Core/XMC4000/../XMC4000/Endpoint_XMC4000.h **** 		#include "../../Common/Common.h"
  70:/opt/XMClib/XMC_Peripheral_Library_v2.1.16/ThirdPartyLibraries/USBlib/USB/Class/Device/../../Core/XMC4000/../XMC4000/Endpoint_XMC4000.h **** 		#include "../USBTask.h"
  71:/opt/XMClib/XMC_Peripheral_Library_v2.1.16/ThirdPartyLibraries/USBlib/USB/Class/Device/../../Core/XMC4000/../XMC4000/Endpoint_XMC4000.h **** 		#include "../USBInterrupt.h"
  72:/opt/XMClib/XMC_Peripheral_Library_v2.1.16/ThirdPartyLibraries/USBlib/USB/Class/Device/../../Core/XMC4000/../XMC4000/Endpoint_XMC4000.h **** 		#include "../USBController.h"
  73:/opt/XMClib/XMC_Peripheral_Library_v2.1.16/ThirdPartyLibraries/USBlib/USB/Class/Device/../../Core/XMC4000/../XMC4000/Endpoint_XMC4000.h **** 
  74:/opt/XMClib/XMC_Peripheral_Library_v2.1.16/ThirdPartyLibraries/USBlib/USB/Class/Device/../../Core/XMC4000/../XMC4000/Endpoint_XMC4000.h **** /* Enable C linkage for C++ Compilers: */
  75:/opt/XMClib/XMC_Peripheral_Library_v2.1.16/ThirdPartyLibraries/USBlib/USB/Class/Device/../../Core/XMC4000/../XMC4000/Endpoint_XMC4000.h **** #if defined(__cplusplus)
  76:/opt/XMClib/XMC_Peripheral_Library_v2.1.16/ThirdPartyLibraries/USBlib/USB/Class/Device/../../Core/XMC4000/../XMC4000/Endpoint_XMC4000.h **** 	extern "C" {
  77:/opt/XMClib/XMC_Peripheral_Library_v2.1.16/ThirdPartyLibraries/USBlib/USB/Class/Device/../../Core/XMC4000/../XMC4000/Endpoint_XMC4000.h **** #endif
  78:/opt/XMClib/XMC_Peripheral_Library_v2.1.16/ThirdPartyLibraries/USBlib/USB/Class/Device/../../Core/XMC4000/../XMC4000/Endpoint_XMC4000.h **** 
  79:/opt/XMClib/XMC_Peripheral_Library_v2.1.16/ThirdPartyLibraries/USBlib/USB/Class/Device/../../Core/XMC4000/../XMC4000/Endpoint_XMC4000.h **** 	/* Preprocessor Checks: */
  80:/opt/XMClib/XMC_Peripheral_Library_v2.1.16/ThirdPartyLibraries/USBlib/USB/Class/Device/../../Core/XMC4000/../XMC4000/Endpoint_XMC4000.h **** 		#if !defined(__INCLUDE_FROM_USB_DRIVER)
  81:/opt/XMClib/XMC_Peripheral_Library_v2.1.16/ThirdPartyLibraries/USBlib/USB/Class/Device/../../Core/XMC4000/../XMC4000/Endpoint_XMC4000.h **** 			#error Do not include this file directly. Include LUFA/Drivers/USB/USB.h instead.
  82:/opt/XMClib/XMC_Peripheral_Library_v2.1.16/ThirdPartyLibraries/USBlib/USB/Class/Device/../../Core/XMC4000/../XMC4000/Endpoint_XMC4000.h **** 		#endif
  83:/opt/XMClib/XMC_Peripheral_Library_v2.1.16/ThirdPartyLibraries/USBlib/USB/Class/Device/../../Core/XMC4000/../XMC4000/Endpoint_XMC4000.h **** 
  84:/opt/XMClib/XMC_Peripheral_Library_v2.1.16/ThirdPartyLibraries/USBlib/USB/Class/Device/../../Core/XMC4000/../XMC4000/Endpoint_XMC4000.h **** 	/* Public Interface - May be used in end-application: */
  85:/opt/XMClib/XMC_Peripheral_Library_v2.1.16/ThirdPartyLibraries/USBlib/USB/Class/Device/../../Core/XMC4000/../XMC4000/Endpoint_XMC4000.h ****             
  86:/opt/XMClib/XMC_Peripheral_Library_v2.1.16/ThirdPartyLibraries/USBlib/USB/Class/Device/../../Core/XMC4000/../XMC4000/Endpoint_XMC4000.h **** 	/** Enum for the possible error return codes of the \ref Endpoint_WaitUntilReady() function.
  87:/opt/XMClib/XMC_Peripheral_Library_v2.1.16/ThirdPartyLibraries/USBlib/USB/Class/Device/../../Core/XMC4000/../XMC4000/Endpoint_XMC4000.h **** 	 *
  88:/opt/XMClib/XMC_Peripheral_Library_v2.1.16/ThirdPartyLibraries/USBlib/USB/Class/Device/../../Core/XMC4000/../XMC4000/Endpoint_XMC4000.h **** 	 *  \ingroup Group_EndpointRW
  89:/opt/XMClib/XMC_Peripheral_Library_v2.1.16/ThirdPartyLibraries/USBlib/USB/Class/Device/../../Core/XMC4000/../XMC4000/Endpoint_XMC4000.h **** 	 */
  90:/opt/XMClib/XMC_Peripheral_Library_v2.1.16/ThirdPartyLibraries/USBlib/USB/Class/Device/../../Core/XMC4000/../XMC4000/Endpoint_XMC4000.h **** 	enum Endpoint_WaitUntilReady_ErrorCodes_t
  91:/opt/XMClib/XMC_Peripheral_Library_v2.1.16/ThirdPartyLibraries/USBlib/USB/Class/Device/../../Core/XMC4000/../XMC4000/Endpoint_XMC4000.h **** 	{
  92:/opt/XMClib/XMC_Peripheral_Library_v2.1.16/ThirdPartyLibraries/USBlib/USB/Class/Device/../../Core/XMC4000/../XMC4000/Endpoint_XMC4000.h **** 		ENDPOINT_READYWAIT_NoError                 = 0, /**< Endpoint is ready for next packet, no error.
  93:/opt/XMClib/XMC_Peripheral_Library_v2.1.16/ThirdPartyLibraries/USBlib/USB/Class/Device/../../Core/XMC4000/../XMC4000/Endpoint_XMC4000.h **** 		ENDPOINT_READYWAIT_EndpointStalled         = 1, /**< The endpoint was stalled during the stream
  94:/opt/XMClib/XMC_Peripheral_Library_v2.1.16/ThirdPartyLibraries/USBlib/USB/Class/Device/../../Core/XMC4000/../XMC4000/Endpoint_XMC4000.h **** 														 *   transfer by the host or device.
  95:/opt/XMClib/XMC_Peripheral_Library_v2.1.16/ThirdPartyLibraries/USBlib/USB/Class/Device/../../Core/XMC4000/../XMC4000/Endpoint_XMC4000.h **** 														 */
  96:/opt/XMClib/XMC_Peripheral_Library_v2.1.16/ThirdPartyLibraries/USBlib/USB/Class/Device/../../Core/XMC4000/../XMC4000/Endpoint_XMC4000.h **** 		ENDPOINT_READYWAIT_DeviceDisconnected      = 2,	/**< Device was disconnected from the host while
  97:/opt/XMClib/XMC_Peripheral_Library_v2.1.16/ThirdPartyLibraries/USBlib/USB/Class/Device/../../Core/XMC4000/../XMC4000/Endpoint_XMC4000.h **** 														 *   waiting for the endpoint to become ready.
  98:/opt/XMClib/XMC_Peripheral_Library_v2.1.16/ThirdPartyLibraries/USBlib/USB/Class/Device/../../Core/XMC4000/../XMC4000/Endpoint_XMC4000.h **** 														 */
  99:/opt/XMClib/XMC_Peripheral_Library_v2.1.16/ThirdPartyLibraries/USBlib/USB/Class/Device/../../Core/XMC4000/../XMC4000/Endpoint_XMC4000.h **** 		ENDPOINT_READYWAIT_BusSuspended            = 3, /**< The USB bus has been suspended by the host a
 100:/opt/XMClib/XMC_Peripheral_Library_v2.1.16/ThirdPartyLibraries/USBlib/USB/Class/Device/../../Core/XMC4000/../XMC4000/Endpoint_XMC4000.h **** 														 *   no USB endpoint traffic can occur until the bus
 101:/opt/XMClib/XMC_Peripheral_Library_v2.1.16/ThirdPartyLibraries/USBlib/USB/Class/Device/../../Core/XMC4000/../XMC4000/Endpoint_XMC4000.h **** 														 *   has resumed.
 102:/opt/XMClib/XMC_Peripheral_Library_v2.1.16/ThirdPartyLibraries/USBlib/USB/Class/Device/../../Core/XMC4000/../XMC4000/Endpoint_XMC4000.h **** 														 */
 103:/opt/XMClib/XMC_Peripheral_Library_v2.1.16/ThirdPartyLibraries/USBlib/USB/Class/Device/../../Core/XMC4000/../XMC4000/Endpoint_XMC4000.h **** 		ENDPOINT_READYWAIT_Timeout                 = 4, /**< The host failed to accept or send the next p
 104:/opt/XMClib/XMC_Peripheral_Library_v2.1.16/ThirdPartyLibraries/USBlib/USB/Class/Device/../../Core/XMC4000/../XMC4000/Endpoint_XMC4000.h **** 														 *   within the software timeout period set by the
 105:/opt/XMClib/XMC_Peripheral_Library_v2.1.16/ThirdPartyLibraries/USBlib/USB/Class/Device/../../Core/XMC4000/../XMC4000/Endpoint_XMC4000.h **** 														 *   \ref USB_STREAM_TIMEOUT_MS macro.
 106:/opt/XMClib/XMC_Peripheral_Library_v2.1.16/ThirdPartyLibraries/USBlib/USB/Class/Device/../../Core/XMC4000/../XMC4000/Endpoint_XMC4000.h **** 														 */
 107:/opt/XMClib/XMC_Peripheral_Library_v2.1.16/ThirdPartyLibraries/USBlib/USB/Class/Device/../../Core/XMC4000/../XMC4000/Endpoint_XMC4000.h **** 	};
 108:/opt/XMClib/XMC_Peripheral_Library_v2.1.16/ThirdPartyLibraries/USBlib/USB/Class/Device/../../Core/XMC4000/../XMC4000/Endpoint_XMC4000.h **** 
 109:/opt/XMClib/XMC_Peripheral_Library_v2.1.16/ThirdPartyLibraries/USBlib/USB/Class/Device/../../Core/XMC4000/../XMC4000/Endpoint_XMC4000.h **** 	/** Get the endpoint address of the currently selected endpoint. This is typically used to save
 110:/opt/XMClib/XMC_Peripheral_Library_v2.1.16/ThirdPartyLibraries/USBlib/USB/Class/Device/../../Core/XMC4000/../XMC4000/Endpoint_XMC4000.h **** 	 *  the currently selected endpoint so that it can be restored after another endpoint has been
 111:/opt/XMClib/XMC_Peripheral_Library_v2.1.16/ThirdPartyLibraries/USBlib/USB/Class/Device/../../Core/XMC4000/../XMC4000/Endpoint_XMC4000.h **** 	 *  manipulated.
 112:/opt/XMClib/XMC_Peripheral_Library_v2.1.16/ThirdPartyLibraries/USBlib/USB/Class/Device/../../Core/XMC4000/../XMC4000/Endpoint_XMC4000.h **** 	 *
 113:/opt/XMClib/XMC_Peripheral_Library_v2.1.16/ThirdPartyLibraries/USBlib/USB/Class/Device/../../Core/XMC4000/../XMC4000/Endpoint_XMC4000.h **** 	 *  \return Index of the currently selected endpoint.
 114:/opt/XMClib/XMC_Peripheral_Library_v2.1.16/ThirdPartyLibraries/USBlib/USB/Class/Device/../../Core/XMC4000/../XMC4000/Endpoint_XMC4000.h **** 	 */
 115:/opt/XMClib/XMC_Peripheral_Library_v2.1.16/ThirdPartyLibraries/USBlib/USB/Class/Device/../../Core/XMC4000/../XMC4000/Endpoint_XMC4000.h **** 	static inline uint8_t Endpoint_GetCurrentEndpoint(void) ATTR_WARN_UNUSED_RESULT ATTR_ALWAYS_INLINE
 116:/opt/XMClib/XMC_Peripheral_Library_v2.1.16/ThirdPartyLibraries/USBlib/USB/Class/Device/../../Core/XMC4000/../XMC4000/Endpoint_XMC4000.h **** 	static inline uint8_t Endpoint_GetCurrentEndpoint(void)
 117:/opt/XMClib/XMC_Peripheral_Library_v2.1.16/ThirdPartyLibraries/USBlib/USB/Class/Device/../../Core/XMC4000/../XMC4000/Endpoint_XMC4000.h **** 	{
 118:/opt/XMClib/XMC_Peripheral_Library_v2.1.16/ThirdPartyLibraries/USBlib/USB/Class/Device/../../Core/XMC4000/../XMC4000/Endpoint_XMC4000.h **** 		return device.CurrentDirection | device.CurrentEndpoint;
 119:/opt/XMClib/XMC_Peripheral_Library_v2.1.16/ThirdPartyLibraries/USBlib/USB/Class/Device/../../Core/XMC4000/../XMC4000/Endpoint_XMC4000.h **** 	}
 120:/opt/XMClib/XMC_Peripheral_Library_v2.1.16/ThirdPartyLibraries/USBlib/USB/Class/Device/../../Core/XMC4000/../XMC4000/Endpoint_XMC4000.h **** 
 121:/opt/XMClib/XMC_Peripheral_Library_v2.1.16/ThirdPartyLibraries/USBlib/USB/Class/Device/../../Core/XMC4000/../XMC4000/Endpoint_XMC4000.h **** 	/** Selects the given endpoint address.
 122:/opt/XMClib/XMC_Peripheral_Library_v2.1.16/ThirdPartyLibraries/USBlib/USB/Class/Device/../../Core/XMC4000/../XMC4000/Endpoint_XMC4000.h **** 	 *
 123:/opt/XMClib/XMC_Peripheral_Library_v2.1.16/ThirdPartyLibraries/USBlib/USB/Class/Device/../../Core/XMC4000/../XMC4000/Endpoint_XMC4000.h **** 	 *  Any endpoint operations which do not require the endpoint address to be indicated will operate
 124:/opt/XMClib/XMC_Peripheral_Library_v2.1.16/ThirdPartyLibraries/USBlib/USB/Class/Device/../../Core/XMC4000/../XMC4000/Endpoint_XMC4000.h **** 	 *  the currently selected endpoint.
 125:/opt/XMClib/XMC_Peripheral_Library_v2.1.16/ThirdPartyLibraries/USBlib/USB/Class/Device/../../Core/XMC4000/../XMC4000/Endpoint_XMC4000.h **** 	 *
 126:/opt/XMClib/XMC_Peripheral_Library_v2.1.16/ThirdPartyLibraries/USBlib/USB/Class/Device/../../Core/XMC4000/../XMC4000/Endpoint_XMC4000.h **** 	 *  \param[in] Address Endpoint address to select.
 127:/opt/XMClib/XMC_Peripheral_Library_v2.1.16/ThirdPartyLibraries/USBlib/USB/Class/Device/../../Core/XMC4000/../XMC4000/Endpoint_XMC4000.h **** 	 */
 128:/opt/XMClib/XMC_Peripheral_Library_v2.1.16/ThirdPartyLibraries/USBlib/USB/Class/Device/../../Core/XMC4000/../XMC4000/Endpoint_XMC4000.h **** 	static inline void Endpoint_SelectEndpoint(const uint8_t Address) ATTR_ALWAYS_INLINE;
 129:/opt/XMClib/XMC_Peripheral_Library_v2.1.16/ThirdPartyLibraries/USBlib/USB/Class/Device/../../Core/XMC4000/../XMC4000/Endpoint_XMC4000.h **** 	static inline void Endpoint_SelectEndpoint(const uint8_t Address)
 134              		.loc 2 129 21 view .LVU27
 135              	.LBB58:
 130:/opt/XMClib/XMC_Peripheral_Library_v2.1.16/ThirdPartyLibraries/USBlib/USB/Class/Device/../../Core/XMC4000/../XMC4000/Endpoint_XMC4000.h **** 	{
 131:/opt/XMClib/XMC_Peripheral_Library_v2.1.16/ThirdPartyLibraries/USBlib/USB/Class/Device/../../Core/XMC4000/../XMC4000/Endpoint_XMC4000.h **** 		device.CurrentEndpoint = Address & ENDPOINT_EPNUM_MASK;
 136              		.loc 2 131 3 view .LVU28
 137              		.loc 2 131 26 is_stmt 0 view .LVU29
 138 0014 0B4A     		ldr	r2, .L13+4
 139              		.loc 2 131 36 view .LVU30
 140 0016 03F00F01 		and	r1, r3, #15
 141              	.LVL8:
 142              		.loc 2 131 26 view .LVU31
 143 001a 82F83C11 		strb	r1, [r2, #316]
 132:/opt/XMClib/XMC_Peripheral_Library_v2.1.16/ThirdPartyLibraries/USBlib/USB/Class/Device/../../Core/XMC4000/../XMC4000/Endpoint_XMC4000.h **** 		device.CurrentDirection = (Address & ENDPOINT_DIR_MASK);
 144              		.loc 2 132 3 is_stmt 1 view .LVU32
 145              		.loc 2 132 38 is_stmt 0 view .LVU33
 146 001e 23F07F03 		bic	r3, r3, #127
 147              	.LVL9:
 148              		.loc 2 132 27 view .LVU34
 149 0022 82F83D31 		strb	r3, [r2, #317]
 150              		.loc 2 132 27 view .LVU35
 151              	.LBE58:
 152              	.LBE57:
 155:/opt/XMClib/XMC_Peripheral_Library_v2.1.16/ThirdPartyLibraries/USBlib/USB/Class/Device/CDCClassDevice.c **** 	return Endpoint_Write_Stream_LE(String, strlen(String), NULL);
 153              		.loc 1 155 2 is_stmt 1 view .LVU36
 154              		.loc 1 155 42 is_stmt 0 view .LVU37
 155 0026 2046     		mov	r0, r4
 156              	.LVL10:
 157              		.loc 1 155 42 view .LVU38
 158 0028 FFF7FEFF 		bl	strlen
 159              	.LVL11:
 160              		.loc 1 155 9 view .LVU39
 161 002c 0022     		movs	r2, #0
 162 002e 81B2     		uxth	r1, r0
 163 0030 2046     		mov	r0, r4
 164 0032 FFF7FEFF 		bl	Endpoint_Write_Stream_LE
 165              	.LVL12:
 166              	.L6:
 156:/opt/XMClib/XMC_Peripheral_Library_v2.1.16/ThirdPartyLibraries/USBlib/USB/Class/Device/CDCClassDevice.c **** }
 167              		.loc 1 156 1 view .LVU40
 168 0036 10BD     		pop	{r4, pc}
 169              	.LVL13:
 170              	.L7:
 171              	.LCFI2:
 172              		.cfi_def_cfa_offset 0
 173              		.cfi_restore 4
 174              		.cfi_restore 14
 152:/opt/XMClib/XMC_Peripheral_Library_v2.1.16/ThirdPartyLibraries/USBlib/USB/Class/Device/CDCClassDevice.c **** 
 175              		.loc 1 152 11 view .LVU41
 176 0038 0220     		movs	r0, #2
 177              	.LVL14:
 178              		.loc 1 156 1 view .LVU42
 179 003a 7047     		bx	lr
 180              	.LVL15:
 181              	.L8:
 182              	.LCFI3:
 183              		.cfi_def_cfa_offset 8
 184              		.cfi_offset 4, -8
 185              		.cfi_offset 14, -4
 152:/opt/XMClib/XMC_Peripheral_Library_v2.1.16/ThirdPartyLibraries/USBlib/USB/Class/Device/CDCClassDevice.c **** 
 186              		.loc 1 152 11 view .LVU43
 187 003c 0220     		movs	r0, #2
 188              	.LVL16:
 152:/opt/XMClib/XMC_Peripheral_Library_v2.1.16/ThirdPartyLibraries/USBlib/USB/Class/Device/CDCClassDevice.c **** 
 189              		.loc 1 152 11 view .LVU44
 190 003e FAE7     		b	.L6
 191              	.L14:
 192              		.align	2
 193              	.L13:
 194 0040 00000000 		.word	USB_DeviceState
 195 0044 00000000 		.word	device
 196              		.cfi_endproc
 197              	.LFE196:
 199              		.section	.text.CDC_Device_SendData,"ax",%progbits
 200              		.align	1
 201              		.global	CDC_Device_SendData
 202              		.syntax unified
 203              		.thumb
 204              		.thumb_func
 205              		.fpu fpv4-sp-d16
 207              	CDC_Device_SendData:
 208              	.LVL17:
 209              	.LFB197:
 157:/opt/XMClib/XMC_Peripheral_Library_v2.1.16/ThirdPartyLibraries/USBlib/USB/Class/Device/CDCClassDevice.c **** 
 158:/opt/XMClib/XMC_Peripheral_Library_v2.1.16/ThirdPartyLibraries/USBlib/USB/Class/Device/CDCClassDevice.c **** uint8_t CDC_Device_SendData(USB_ClassInfo_CDC_Device_t* const CDCInterfaceInfo,
 159:/opt/XMClib/XMC_Peripheral_Library_v2.1.16/ThirdPartyLibraries/USBlib/USB/Class/Device/CDCClassDevice.c ****                             const void* const Buffer,
 160:/opt/XMClib/XMC_Peripheral_Library_v2.1.16/ThirdPartyLibraries/USBlib/USB/Class/Device/CDCClassDevice.c ****                             const uint16_t Length)
 161:/opt/XMClib/XMC_Peripheral_Library_v2.1.16/ThirdPartyLibraries/USBlib/USB/Class/Device/CDCClassDevice.c **** {
 210              		.loc 1 161 1 is_stmt 1 view -0
 211              		.cfi_startproc
 212              		@ args = 0, pretend = 0, frame = 0
 213              		@ frame_needed = 0, uses_anonymous_args = 0
 214              		.loc 1 161 1 is_stmt 0 view .LVU46
 215 0000 10B5     		push	{r4, lr}
 216              	.LCFI4:
 217              		.cfi_def_cfa_offset 8
 218              		.cfi_offset 4, -8
 219              		.cfi_offset 14, -4
 220 0002 0346     		mov	r3, r0
 221 0004 0846     		mov	r0, r1
 222              	.LVL18:
 223              		.loc 1 161 1 view .LVU47
 224 0006 1146     		mov	r1, r2
 225              	.LVL19:
 162:/opt/XMClib/XMC_Peripheral_Library_v2.1.16/ThirdPartyLibraries/USBlib/USB/Class/Device/CDCClassDevice.c **** 	if ((USB_DeviceState != DEVICE_STATE_Configured) || !(CDCInterfaceInfo->State.LineEncoding.BaudRat
 226              		.loc 1 162 2 is_stmt 1 view .LVU48
 227              		.loc 1 162 23 is_stmt 0 view .LVU49
 228 0008 0C4A     		ldr	r2, .L20
 229              	.LVL20:
 230              		.loc 1 162 23 view .LVU50
 231 000a 1478     		ldrb	r4, [r2]	@ zero_extendqisi2
 232 000c E4B2     		uxtb	r4, r4
 233              		.loc 1 162 5 view .LVU51
 234 000e 042C     		cmp	r4, #4
 235 0010 0FD1     		bne	.L17
 236              		.loc 1 162 92 discriminator 1 view .LVU52
 237 0012 9A69     		ldr	r2, [r3, #24]	@ unaligned
 238              		.loc 1 162 51 discriminator 1 view .LVU53
 239 0014 7AB1     		cbz	r2, .L18
 163:/opt/XMClib/XMC_Peripheral_Library_v2.1.16/ThirdPartyLibraries/USBlib/USB/Class/Device/CDCClassDevice.c **** 	  return ENDPOINT_RWSTREAM_DeviceDisconnected;
 164:/opt/XMClib/XMC_Peripheral_Library_v2.1.16/ThirdPartyLibraries/USBlib/USB/Class/Device/CDCClassDevice.c **** 
 165:/opt/XMClib/XMC_Peripheral_Library_v2.1.16/ThirdPartyLibraries/USBlib/USB/Class/Device/CDCClassDevice.c **** 	Endpoint_SelectEndpoint(CDCInterfaceInfo->Config.DataINEndpoint.Address);
 240              		.loc 1 165 2 is_stmt 1 view .LVU54
 241 0016 9B78     		ldrb	r3, [r3, #2]	@ zero_extendqisi2
 242              	.LVL21:
 243              	.LBB59:
 244              	.LBI59:
 129:/opt/XMClib/XMC_Peripheral_Library_v2.1.16/ThirdPartyLibraries/USBlib/USB/Class/Device/../../Core/XMC4000/../XMC4000/Endpoint_XMC4000.h **** 	{
 245              		.loc 2 129 21 view .LVU55
 246              	.LBB60:
 131:/opt/XMClib/XMC_Peripheral_Library_v2.1.16/ThirdPartyLibraries/USBlib/USB/Class/Device/../../Core/XMC4000/../XMC4000/Endpoint_XMC4000.h **** 		device.CurrentDirection = (Address & ENDPOINT_DIR_MASK);
 247              		.loc 2 131 3 view .LVU56
 131:/opt/XMClib/XMC_Peripheral_Library_v2.1.16/ThirdPartyLibraries/USBlib/USB/Class/Device/../../Core/XMC4000/../XMC4000/Endpoint_XMC4000.h **** 		device.CurrentDirection = (Address & ENDPOINT_DIR_MASK);
 248              		.loc 2 131 26 is_stmt 0 view .LVU57
 249 0018 094A     		ldr	r2, .L20+4
 131:/opt/XMClib/XMC_Peripheral_Library_v2.1.16/ThirdPartyLibraries/USBlib/USB/Class/Device/../../Core/XMC4000/../XMC4000/Endpoint_XMC4000.h **** 		device.CurrentDirection = (Address & ENDPOINT_DIR_MASK);
 250              		.loc 2 131 36 view .LVU58
 251 001a 03F00F04 		and	r4, r3, #15
 131:/opt/XMClib/XMC_Peripheral_Library_v2.1.16/ThirdPartyLibraries/USBlib/USB/Class/Device/../../Core/XMC4000/../XMC4000/Endpoint_XMC4000.h **** 		device.CurrentDirection = (Address & ENDPOINT_DIR_MASK);
 252              		.loc 2 131 26 view .LVU59
 253 001e 82F83C41 		strb	r4, [r2, #316]
 254              		.loc 2 132 3 is_stmt 1 view .LVU60
 255              		.loc 2 132 38 is_stmt 0 view .LVU61
 256 0022 23F07F03 		bic	r3, r3, #127
 257              	.LVL22:
 258              		.loc 2 132 27 view .LVU62
 259 0026 82F83D31 		strb	r3, [r2, #317]
 260              		.loc 2 132 27 view .LVU63
 261              	.LBE60:
 262              	.LBE59:
 166:/opt/XMClib/XMC_Peripheral_Library_v2.1.16/ThirdPartyLibraries/USBlib/USB/Class/Device/CDCClassDevice.c **** 	return Endpoint_Write_Stream_LE(Buffer, Length, NULL);
 263              		.loc 1 166 2 is_stmt 1 view .LVU64
 264              		.loc 1 166 9 is_stmt 0 view .LVU65
 265 002a 0022     		movs	r2, #0
 266 002c FFF7FEFF 		bl	Endpoint_Write_Stream_LE
 267              	.LVL23:
 268              	.L16:
 167:/opt/XMClib/XMC_Peripheral_Library_v2.1.16/ThirdPartyLibraries/USBlib/USB/Class/Device/CDCClassDevice.c **** }
 269              		.loc 1 167 1 view .LVU66
 270 0030 10BD     		pop	{r4, pc}
 271              	.LVL24:
 272              	.L17:
 163:/opt/XMClib/XMC_Peripheral_Library_v2.1.16/ThirdPartyLibraries/USBlib/USB/Class/Device/CDCClassDevice.c **** 
 273              		.loc 1 163 11 view .LVU67
 274 0032 0220     		movs	r0, #2
 275              	.LVL25:
 163:/opt/XMClib/XMC_Peripheral_Library_v2.1.16/ThirdPartyLibraries/USBlib/USB/Class/Device/CDCClassDevice.c **** 
 276              		.loc 1 163 11 view .LVU68
 277 0034 FCE7     		b	.L16
 278              	.LVL26:
 279              	.L18:
 163:/opt/XMClib/XMC_Peripheral_Library_v2.1.16/ThirdPartyLibraries/USBlib/USB/Class/Device/CDCClassDevice.c **** 
 280              		.loc 1 163 11 view .LVU69
 281 0036 0220     		movs	r0, #2
 282              	.LVL27:
 163:/opt/XMClib/XMC_Peripheral_Library_v2.1.16/ThirdPartyLibraries/USBlib/USB/Class/Device/CDCClassDevice.c **** 
 283              		.loc 1 163 11 view .LVU70
 284 0038 FAE7     		b	.L16
 285              	.L21:
 286 003a 00BF     		.align	2
 287              	.L20:
 288 003c 00000000 		.word	USB_DeviceState
 289 0040 00000000 		.word	device
 290              		.cfi_endproc
 291              	.LFE197:
 293              		.section	.text.CDC_Device_SendByte,"ax",%progbits
 294              		.align	1
 295              		.global	CDC_Device_SendByte
 296              		.syntax unified
 297              		.thumb
 298              		.thumb_func
 299              		.fpu fpv4-sp-d16
 301              	CDC_Device_SendByte:
 302              	.LVL28:
 303              	.LFB198:
 168:/opt/XMClib/XMC_Peripheral_Library_v2.1.16/ThirdPartyLibraries/USBlib/USB/Class/Device/CDCClassDevice.c **** 
 169:/opt/XMClib/XMC_Peripheral_Library_v2.1.16/ThirdPartyLibraries/USBlib/USB/Class/Device/CDCClassDevice.c **** uint8_t CDC_Device_SendByte(USB_ClassInfo_CDC_Device_t* const CDCInterfaceInfo,
 170:/opt/XMClib/XMC_Peripheral_Library_v2.1.16/ThirdPartyLibraries/USBlib/USB/Class/Device/CDCClassDevice.c ****                             const uint8_t Data)
 171:/opt/XMClib/XMC_Peripheral_Library_v2.1.16/ThirdPartyLibraries/USBlib/USB/Class/Device/CDCClassDevice.c **** {
 304              		.loc 1 171 1 is_stmt 1 view -0
 305              		.cfi_startproc
 306              		@ args = 0, pretend = 0, frame = 0
 307              		@ frame_needed = 0, uses_anonymous_args = 0
 172:/opt/XMClib/XMC_Peripheral_Library_v2.1.16/ThirdPartyLibraries/USBlib/USB/Class/Device/CDCClassDevice.c **** 	if ((USB_DeviceState != DEVICE_STATE_Configured) || !(CDCInterfaceInfo->State.LineEncoding.BaudRat
 308              		.loc 1 172 2 view .LVU72
 309              		.loc 1 172 23 is_stmt 0 view .LVU73
 310 0000 114B     		ldr	r3, .L31
 311 0002 1B78     		ldrb	r3, [r3]	@ zero_extendqisi2
 312 0004 DBB2     		uxtb	r3, r3
 313              		.loc 1 172 5 view .LVU74
 314 0006 042B     		cmp	r3, #4
 315 0008 1AD1     		bne	.L25
 171:/opt/XMClib/XMC_Peripheral_Library_v2.1.16/ThirdPartyLibraries/USBlib/USB/Class/Device/CDCClassDevice.c **** 	if ((USB_DeviceState != DEVICE_STATE_Configured) || !(CDCInterfaceInfo->State.LineEncoding.BaudRat
 316              		.loc 1 171 1 discriminator 1 view .LVU75
 317 000a 10B5     		push	{r4, lr}
 318              	.LCFI5:
 319              		.cfi_def_cfa_offset 8
 320              		.cfi_offset 4, -8
 321              		.cfi_offset 14, -4
 322 000c 0C46     		mov	r4, r1
 323              		.loc 1 172 92 discriminator 1 view .LVU76
 324 000e 8369     		ldr	r3, [r0, #24]	@ unaligned
 325              		.loc 1 172 51 discriminator 1 view .LVU77
 326 0010 C3B1     		cbz	r3, .L26
 173:/opt/XMClib/XMC_Peripheral_Library_v2.1.16/ThirdPartyLibraries/USBlib/USB/Class/Device/CDCClassDevice.c **** 	  return ENDPOINT_RWSTREAM_DeviceDisconnected;
 174:/opt/XMClib/XMC_Peripheral_Library_v2.1.16/ThirdPartyLibraries/USBlib/USB/Class/Device/CDCClassDevice.c **** 
 175:/opt/XMClib/XMC_Peripheral_Library_v2.1.16/ThirdPartyLibraries/USBlib/USB/Class/Device/CDCClassDevice.c **** 	Endpoint_SelectEndpoint(CDCInterfaceInfo->Config.DataINEndpoint.Address);
 327              		.loc 1 175 2 is_stmt 1 view .LVU78
 328 0012 8378     		ldrb	r3, [r0, #2]	@ zero_extendqisi2
 329              	.LVL29:
 330              	.LBB61:
 331              	.LBI61:
 129:/opt/XMClib/XMC_Peripheral_Library_v2.1.16/ThirdPartyLibraries/USBlib/USB/Class/Device/../../Core/XMC4000/../XMC4000/Endpoint_XMC4000.h **** 	{
 332              		.loc 2 129 21 view .LVU79
 333              	.LBB62:
 131:/opt/XMClib/XMC_Peripheral_Library_v2.1.16/ThirdPartyLibraries/USBlib/USB/Class/Device/../../Core/XMC4000/../XMC4000/Endpoint_XMC4000.h **** 		device.CurrentDirection = (Address & ENDPOINT_DIR_MASK);
 334              		.loc 2 131 3 view .LVU80
 131:/opt/XMClib/XMC_Peripheral_Library_v2.1.16/ThirdPartyLibraries/USBlib/USB/Class/Device/../../Core/XMC4000/../XMC4000/Endpoint_XMC4000.h **** 		device.CurrentDirection = (Address & ENDPOINT_DIR_MASK);
 335              		.loc 2 131 26 is_stmt 0 view .LVU81
 336 0014 0D4A     		ldr	r2, .L31+4
 131:/opt/XMClib/XMC_Peripheral_Library_v2.1.16/ThirdPartyLibraries/USBlib/USB/Class/Device/../../Core/XMC4000/../XMC4000/Endpoint_XMC4000.h **** 		device.CurrentDirection = (Address & ENDPOINT_DIR_MASK);
 337              		.loc 2 131 36 view .LVU82
 338 0016 03F00F01 		and	r1, r3, #15
 339              	.LVL30:
 131:/opt/XMClib/XMC_Peripheral_Library_v2.1.16/ThirdPartyLibraries/USBlib/USB/Class/Device/../../Core/XMC4000/../XMC4000/Endpoint_XMC4000.h **** 		device.CurrentDirection = (Address & ENDPOINT_DIR_MASK);
 340              		.loc 2 131 26 view .LVU83
 341 001a 82F83C11 		strb	r1, [r2, #316]
 342              		.loc 2 132 3 is_stmt 1 view .LVU84
 343              		.loc 2 132 38 is_stmt 0 view .LVU85
 344 001e 23F07F03 		bic	r3, r3, #127
 345              	.LVL31:
 346              		.loc 2 132 27 view .LVU86
 347 0022 82F83D31 		strb	r3, [r2, #317]
 348              		.loc 2 132 27 view .LVU87
 349              	.LBE62:
 350              	.LBE61:
 176:/opt/XMClib/XMC_Peripheral_Library_v2.1.16/ThirdPartyLibraries/USBlib/USB/Class/Device/CDCClassDevice.c **** 
 177:/opt/XMClib/XMC_Peripheral_Library_v2.1.16/ThirdPartyLibraries/USBlib/USB/Class/Device/CDCClassDevice.c **** 	if (!(Endpoint_IsReadWriteAllowed()))
 351              		.loc 1 177 2 is_stmt 1 view .LVU88
 352              		.loc 1 177 8 is_stmt 0 view .LVU89
 353 0026 FFF7FEFF 		bl	Endpoint_IsReadWriteAllowed
 354              	.LVL32:
 355              		.loc 1 177 5 view .LVU90
 356 002a 20B9     		cbnz	r0, .L24
 357              	.LBB63:
 178:/opt/XMClib/XMC_Peripheral_Library_v2.1.16/ThirdPartyLibraries/USBlib/USB/Class/Device/CDCClassDevice.c **** 	{
 179:/opt/XMClib/XMC_Peripheral_Library_v2.1.16/ThirdPartyLibraries/USBlib/USB/Class/Device/CDCClassDevice.c **** 		Endpoint_ClearIN();
 358              		.loc 1 179 3 is_stmt 1 view .LVU91
 359 002c FFF7FEFF 		bl	Endpoint_ClearIN
 360              	.LVL33:
 180:/opt/XMClib/XMC_Peripheral_Library_v2.1.16/ThirdPartyLibraries/USBlib/USB/Class/Device/CDCClassDevice.c **** 
 181:/opt/XMClib/XMC_Peripheral_Library_v2.1.16/ThirdPartyLibraries/USBlib/USB/Class/Device/CDCClassDevice.c **** 		uint8_t ErrorCode;
 361              		.loc 1 181 3 view .LVU92
 182:/opt/XMClib/XMC_Peripheral_Library_v2.1.16/ThirdPartyLibraries/USBlib/USB/Class/Device/CDCClassDevice.c **** 
 183:/opt/XMClib/XMC_Peripheral_Library_v2.1.16/ThirdPartyLibraries/USBlib/USB/Class/Device/CDCClassDevice.c **** 		if ((ErrorCode = Endpoint_WaitUntilReady()) != ENDPOINT_READYWAIT_NoError)
 362              		.loc 1 183 3 view .LVU93
 363              		.loc 1 183 20 is_stmt 0 view .LVU94
 364 0030 FFF7FEFF 		bl	Endpoint_WaitUntilReady
 365              	.LVL34:
 366              		.loc 1 183 6 view .LVU95
 367 0034 18B9     		cbnz	r0, .L23
 368              	.LVL35:
 369              	.L24:
 370              		.loc 1 183 6 view .LVU96
 371              	.LBE63:
 184:/opt/XMClib/XMC_Peripheral_Library_v2.1.16/ThirdPartyLibraries/USBlib/USB/Class/Device/CDCClassDevice.c **** 		  return ErrorCode;
 185:/opt/XMClib/XMC_Peripheral_Library_v2.1.16/ThirdPartyLibraries/USBlib/USB/Class/Device/CDCClassDevice.c **** 	}
 186:/opt/XMClib/XMC_Peripheral_Library_v2.1.16/ThirdPartyLibraries/USBlib/USB/Class/Device/CDCClassDevice.c **** 
 187:/opt/XMClib/XMC_Peripheral_Library_v2.1.16/ThirdPartyLibraries/USBlib/USB/Class/Device/CDCClassDevice.c **** 	Endpoint_Write_8(Data);
 372              		.loc 1 187 2 is_stmt 1 view .LVU97
 373 0036 2046     		mov	r0, r4
 374 0038 FFF7FEFF 		bl	Endpoint_Write_8
 375              	.LVL36:
 188:/opt/XMClib/XMC_Peripheral_Library_v2.1.16/ThirdPartyLibraries/USBlib/USB/Class/Device/CDCClassDevice.c **** 	return ENDPOINT_READYWAIT_NoError;
 376              		.loc 1 188 2 view .LVU98
 377              		.loc 1 188 9 is_stmt 0 view .LVU99
 378 003c 0020     		movs	r0, #0
 379              	.L23:
 189:/opt/XMClib/XMC_Peripheral_Library_v2.1.16/ThirdPartyLibraries/USBlib/USB/Class/Device/CDCClassDevice.c **** }
 380              		.loc 1 189 1 view .LVU100
 381 003e 10BD     		pop	{r4, pc}
 382              	.LVL37:
 383              	.L25:
 384              	.LCFI6:
 385              		.cfi_def_cfa_offset 0
 386              		.cfi_restore 4
 387              		.cfi_restore 14
 173:/opt/XMClib/XMC_Peripheral_Library_v2.1.16/ThirdPartyLibraries/USBlib/USB/Class/Device/CDCClassDevice.c **** 
 388              		.loc 1 173 11 view .LVU101
 389 0040 0220     		movs	r0, #2
 390              	.LVL38:
 391              		.loc 1 189 1 view .LVU102
 392 0042 7047     		bx	lr
 393              	.LVL39:
 394              	.L26:
 395              	.LCFI7:
 396              		.cfi_def_cfa_offset 8
 397              		.cfi_offset 4, -8
 398              		.cfi_offset 14, -4
 173:/opt/XMClib/XMC_Peripheral_Library_v2.1.16/ThirdPartyLibraries/USBlib/USB/Class/Device/CDCClassDevice.c **** 
 399              		.loc 1 173 11 view .LVU103
 400 0044 0220     		movs	r0, #2
 401              	.LVL40:
 173:/opt/XMClib/XMC_Peripheral_Library_v2.1.16/ThirdPartyLibraries/USBlib/USB/Class/Device/CDCClassDevice.c **** 
 402              		.loc 1 173 11 view .LVU104
 403 0046 FAE7     		b	.L23
 404              	.L32:
 405              		.align	2
 406              	.L31:
 407 0048 00000000 		.word	USB_DeviceState
 408 004c 00000000 		.word	device
 409              		.cfi_endproc
 410              	.LFE198:
 412              		.section	.text.CDC_Device_Flush,"ax",%progbits
 413              		.align	1
 414              		.global	CDC_Device_Flush
 415              		.syntax unified
 416              		.thumb
 417              		.thumb_func
 418              		.fpu fpv4-sp-d16
 420              	CDC_Device_Flush:
 421              	.LVL41:
 422              	.LFB199:
 190:/opt/XMClib/XMC_Peripheral_Library_v2.1.16/ThirdPartyLibraries/USBlib/USB/Class/Device/CDCClassDevice.c **** 
 191:/opt/XMClib/XMC_Peripheral_Library_v2.1.16/ThirdPartyLibraries/USBlib/USB/Class/Device/CDCClassDevice.c **** uint8_t CDC_Device_Flush(USB_ClassInfo_CDC_Device_t* const CDCInterfaceInfo)
 192:/opt/XMClib/XMC_Peripheral_Library_v2.1.16/ThirdPartyLibraries/USBlib/USB/Class/Device/CDCClassDevice.c **** {
 423              		.loc 1 192 1 is_stmt 1 view -0
 424              		.cfi_startproc
 425              		@ args = 0, pretend = 0, frame = 0
 426              		@ frame_needed = 0, uses_anonymous_args = 0
 427              		.loc 1 192 1 is_stmt 0 view .LVU106
 428 0000 10B5     		push	{r4, lr}
 429              	.LCFI8:
 430              		.cfi_def_cfa_offset 8
 431              		.cfi_offset 4, -8
 432              		.cfi_offset 14, -4
 193:/opt/XMClib/XMC_Peripheral_Library_v2.1.16/ThirdPartyLibraries/USBlib/USB/Class/Device/CDCClassDevice.c **** 	if ((USB_DeviceState != DEVICE_STATE_Configured) || !(CDCInterfaceInfo->State.LineEncoding.BaudRat
 433              		.loc 1 193 2 is_stmt 1 view .LVU107
 434              		.loc 1 193 23 is_stmt 0 view .LVU108
 435 0002 1D4B     		ldr	r3, .L45
 436 0004 1B78     		ldrb	r3, [r3]	@ zero_extendqisi2
 437 0006 DBB2     		uxtb	r3, r3
 438              		.loc 1 193 5 view .LVU109
 439 0008 042B     		cmp	r3, #4
 440 000a 2FD1     		bne	.L37
 441              		.loc 1 193 92 discriminator 1 view .LVU110
 442 000c 8369     		ldr	r3, [r0, #24]	@ unaligned
 443              		.loc 1 193 51 discriminator 1 view .LVU111
 444 000e 83B3     		cbz	r3, .L38
 194:/opt/XMClib/XMC_Peripheral_Library_v2.1.16/ThirdPartyLibraries/USBlib/USB/Class/Device/CDCClassDevice.c **** 	  return ENDPOINT_RWSTREAM_DeviceDisconnected;
 195:/opt/XMClib/XMC_Peripheral_Library_v2.1.16/ThirdPartyLibraries/USBlib/USB/Class/Device/CDCClassDevice.c **** 
 196:/opt/XMClib/XMC_Peripheral_Library_v2.1.16/ThirdPartyLibraries/USBlib/USB/Class/Device/CDCClassDevice.c **** 	uint8_t ErrorCode;
 445              		.loc 1 196 2 is_stmt 1 view .LVU112
 197:/opt/XMClib/XMC_Peripheral_Library_v2.1.16/ThirdPartyLibraries/USBlib/USB/Class/Device/CDCClassDevice.c **** 
 198:/opt/XMClib/XMC_Peripheral_Library_v2.1.16/ThirdPartyLibraries/USBlib/USB/Class/Device/CDCClassDevice.c **** 	Endpoint_SelectEndpoint(CDCInterfaceInfo->Config.DataINEndpoint.Address);
 446              		.loc 1 198 2 view .LVU113
 447 0010 8278     		ldrb	r2, [r0, #2]	@ zero_extendqisi2
 448              	.LVL42:
 449              	.LBB64:
 450              	.LBI64:
 129:/opt/XMClib/XMC_Peripheral_Library_v2.1.16/ThirdPartyLibraries/USBlib/USB/Class/Device/../../Core/XMC4000/../XMC4000/Endpoint_XMC4000.h **** 	{
 451              		.loc 2 129 21 view .LVU114
 452              	.LBB65:
 131:/opt/XMClib/XMC_Peripheral_Library_v2.1.16/ThirdPartyLibraries/USBlib/USB/Class/Device/../../Core/XMC4000/../XMC4000/Endpoint_XMC4000.h **** 		device.CurrentDirection = (Address & ENDPOINT_DIR_MASK);
 453              		.loc 2 131 3 view .LVU115
 131:/opt/XMClib/XMC_Peripheral_Library_v2.1.16/ThirdPartyLibraries/USBlib/USB/Class/Device/../../Core/XMC4000/../XMC4000/Endpoint_XMC4000.h **** 		device.CurrentDirection = (Address & ENDPOINT_DIR_MASK);
 454              		.loc 2 131 36 is_stmt 0 view .LVU116
 455 0012 02F00F03 		and	r3, r2, #15
 131:/opt/XMClib/XMC_Peripheral_Library_v2.1.16/ThirdPartyLibraries/USBlib/USB/Class/Device/../../Core/XMC4000/../XMC4000/Endpoint_XMC4000.h **** 		device.CurrentDirection = (Address & ENDPOINT_DIR_MASK);
 456              		.loc 2 131 26 view .LVU117
 457 0016 1949     		ldr	r1, .L45+4
 458 0018 81F83C31 		strb	r3, [r1, #316]
 459              		.loc 2 132 3 is_stmt 1 view .LVU118
 460              		.loc 2 132 38 is_stmt 0 view .LVU119
 461 001c 22F07F02 		bic	r2, r2, #127
 462              	.LVL43:
 463              		.loc 2 132 27 view .LVU120
 464 0020 81F83D21 		strb	r2, [r1, #317]
 465              		.loc 2 132 27 view .LVU121
 466              	.LBE65:
 467              	.LBE64:
 199:/opt/XMClib/XMC_Peripheral_Library_v2.1.16/ThirdPartyLibraries/USBlib/USB/Class/Device/CDCClassDevice.c **** 
 200:/opt/XMClib/XMC_Peripheral_Library_v2.1.16/ThirdPartyLibraries/USBlib/USB/Class/Device/CDCClassDevice.c **** 	if (!(Endpoint_BytesInEndpoint()))
 468              		.loc 1 200 2 is_stmt 1 view .LVU122
 469              	.LBB66:
 470              	.LBI66:
 133:/opt/XMClib/XMC_Peripheral_Library_v2.1.16/ThirdPartyLibraries/USBlib/USB/Class/Device/../../Core/XMC4000/../XMC4000/Endpoint_XMC4000.h **** 	}
 134:/opt/XMClib/XMC_Peripheral_Library_v2.1.16/ThirdPartyLibraries/USBlib/USB/Class/Device/../../Core/XMC4000/../XMC4000/Endpoint_XMC4000.h **** 
 135:/opt/XMClib/XMC_Peripheral_Library_v2.1.16/ThirdPartyLibraries/USBlib/USB/Class/Device/../../Core/XMC4000/../XMC4000/Endpoint_XMC4000.h **** 	/** Determines if the current CONTROL type endpoint has received a SETUP packet.
 136:/opt/XMClib/XMC_Peripheral_Library_v2.1.16/ThirdPartyLibraries/USBlib/USB/Class/Device/../../Core/XMC4000/../XMC4000/Endpoint_XMC4000.h **** 	 *
 137:/opt/XMClib/XMC_Peripheral_Library_v2.1.16/ThirdPartyLibraries/USBlib/USB/Class/Device/../../Core/XMC4000/../XMC4000/Endpoint_XMC4000.h **** 	 *  \ingroup Group_EndpointPacketManagement
 138:/opt/XMClib/XMC_Peripheral_Library_v2.1.16/ThirdPartyLibraries/USBlib/USB/Class/Device/../../Core/XMC4000/../XMC4000/Endpoint_XMC4000.h **** 	 *
 139:/opt/XMClib/XMC_Peripheral_Library_v2.1.16/ThirdPartyLibraries/USBlib/USB/Class/Device/../../Core/XMC4000/../XMC4000/Endpoint_XMC4000.h **** 	 *  \return Boolean \c true if the selected endpoint has received a SETUP packet, \c false otherwi
 140:/opt/XMClib/XMC_Peripheral_Library_v2.1.16/ThirdPartyLibraries/USBlib/USB/Class/Device/../../Core/XMC4000/../XMC4000/Endpoint_XMC4000.h **** 	 */
 141:/opt/XMClib/XMC_Peripheral_Library_v2.1.16/ThirdPartyLibraries/USBlib/USB/Class/Device/../../Core/XMC4000/../XMC4000/Endpoint_XMC4000.h **** 	static inline bool Endpoint_IsSETUPReceived(void) ATTR_WARN_UNUSED_RESULT ATTR_ALWAYS_INLINE;
 142:/opt/XMClib/XMC_Peripheral_Library_v2.1.16/ThirdPartyLibraries/USBlib/USB/Class/Device/../../Core/XMC4000/../XMC4000/Endpoint_XMC4000.h **** 	static inline bool Endpoint_IsSETUPReceived(void)
 143:/opt/XMClib/XMC_Peripheral_Library_v2.1.16/ThirdPartyLibraries/USBlib/USB/Class/Device/../../Core/XMC4000/../XMC4000/Endpoint_XMC4000.h **** 	{
 144:/opt/XMClib/XMC_Peripheral_Library_v2.1.16/ThirdPartyLibraries/USBlib/USB/Class/Device/../../Core/XMC4000/../XMC4000/Endpoint_XMC4000.h **** 		return device.IsSetupRecieved;
 145:/opt/XMClib/XMC_Peripheral_Library_v2.1.16/ThirdPartyLibraries/USBlib/USB/Class/Device/../../Core/XMC4000/../XMC4000/Endpoint_XMC4000.h **** 	}
 146:/opt/XMClib/XMC_Peripheral_Library_v2.1.16/ThirdPartyLibraries/USBlib/USB/Class/Device/../../Core/XMC4000/../XMC4000/Endpoint_XMC4000.h **** 
 147:/opt/XMClib/XMC_Peripheral_Library_v2.1.16/ThirdPartyLibraries/USBlib/USB/Class/Device/../../Core/XMC4000/../XMC4000/Endpoint_XMC4000.h **** 
 148:/opt/XMClib/XMC_Peripheral_Library_v2.1.16/ThirdPartyLibraries/USBlib/USB/Class/Device/../../Core/XMC4000/../XMC4000/Endpoint_XMC4000.h **** 	/** Clears a received SETUP packet on the currently selected CONTROL type endpoint, freeing up the
 149:/opt/XMClib/XMC_Peripheral_Library_v2.1.16/ThirdPartyLibraries/USBlib/USB/Class/Device/../../Core/XMC4000/../XMC4000/Endpoint_XMC4000.h **** 	 *  endpoint for the next packet.
 150:/opt/XMClib/XMC_Peripheral_Library_v2.1.16/ThirdPartyLibraries/USBlib/USB/Class/Device/../../Core/XMC4000/../XMC4000/Endpoint_XMC4000.h **** 	 *
 151:/opt/XMClib/XMC_Peripheral_Library_v2.1.16/ThirdPartyLibraries/USBlib/USB/Class/Device/../../Core/XMC4000/../XMC4000/Endpoint_XMC4000.h **** 	 *  \ingroup Group_EndpointPacketManagement
 152:/opt/XMClib/XMC_Peripheral_Library_v2.1.16/ThirdPartyLibraries/USBlib/USB/Class/Device/../../Core/XMC4000/../XMC4000/Endpoint_XMC4000.h **** 	 *
 153:/opt/XMClib/XMC_Peripheral_Library_v2.1.16/ThirdPartyLibraries/USBlib/USB/Class/Device/../../Core/XMC4000/../XMC4000/Endpoint_XMC4000.h **** 	 *  \note This is not applicable for non CONTROL type endpoints.
 154:/opt/XMClib/XMC_Peripheral_Library_v2.1.16/ThirdPartyLibraries/USBlib/USB/Class/Device/../../Core/XMC4000/../XMC4000/Endpoint_XMC4000.h **** 	 */
 155:/opt/XMClib/XMC_Peripheral_Library_v2.1.16/ThirdPartyLibraries/USBlib/USB/Class/Device/../../Core/XMC4000/../XMC4000/Endpoint_XMC4000.h **** 	static inline void Endpoint_ClearSETUP(void) ATTR_ALWAYS_INLINE;
 156:/opt/XMClib/XMC_Peripheral_Library_v2.1.16/ThirdPartyLibraries/USBlib/USB/Class/Device/../../Core/XMC4000/../XMC4000/Endpoint_XMC4000.h **** 	static inline void Endpoint_ClearSETUP(void)
 157:/opt/XMClib/XMC_Peripheral_Library_v2.1.16/ThirdPartyLibraries/USBlib/USB/Class/Device/../../Core/XMC4000/../XMC4000/Endpoint_XMC4000.h **** 	{
 158:/opt/XMClib/XMC_Peripheral_Library_v2.1.16/ThirdPartyLibraries/USBlib/USB/Class/Device/../../Core/XMC4000/../XMC4000/Endpoint_XMC4000.h **** 		device.IsSetupRecieved = 0;
 159:/opt/XMClib/XMC_Peripheral_Library_v2.1.16/ThirdPartyLibraries/USBlib/USB/Class/Device/../../Core/XMC4000/../XMC4000/Endpoint_XMC4000.h **** 	}
 160:/opt/XMClib/XMC_Peripheral_Library_v2.1.16/ThirdPartyLibraries/USBlib/USB/Class/Device/../../Core/XMC4000/../XMC4000/Endpoint_XMC4000.h **** 
 161:/opt/XMClib/XMC_Peripheral_Library_v2.1.16/ThirdPartyLibraries/USBlib/USB/Class/Device/../../Core/XMC4000/../XMC4000/Endpoint_XMC4000.h **** 	/** Nothing done in this function
 162:/opt/XMClib/XMC_Peripheral_Library_v2.1.16/ThirdPartyLibraries/USBlib/USB/Class/Device/../../Core/XMC4000/../XMC4000/Endpoint_XMC4000.h **** 	 *
 163:/opt/XMClib/XMC_Peripheral_Library_v2.1.16/ThirdPartyLibraries/USBlib/USB/Class/Device/../../Core/XMC4000/../XMC4000/Endpoint_XMC4000.h **** 	 */
 164:/opt/XMClib/XMC_Peripheral_Library_v2.1.16/ThirdPartyLibraries/USBlib/USB/Class/Device/../../Core/XMC4000/../XMC4000/Endpoint_XMC4000.h **** 	static inline void Endpoint_ClearStatusStage(void) ATTR_ALWAYS_INLINE;
 165:/opt/XMClib/XMC_Peripheral_Library_v2.1.16/ThirdPartyLibraries/USBlib/USB/Class/Device/../../Core/XMC4000/../XMC4000/Endpoint_XMC4000.h **** 	static inline void Endpoint_ClearStatusStage(void)
 166:/opt/XMClib/XMC_Peripheral_Library_v2.1.16/ThirdPartyLibraries/USBlib/USB/Class/Device/../../Core/XMC4000/../XMC4000/Endpoint_XMC4000.h **** 	{
 167:/opt/XMClib/XMC_Peripheral_Library_v2.1.16/ThirdPartyLibraries/USBlib/USB/Class/Device/../../Core/XMC4000/../XMC4000/Endpoint_XMC4000.h **** 
 168:/opt/XMClib/XMC_Peripheral_Library_v2.1.16/ThirdPartyLibraries/USBlib/USB/Class/Device/../../Core/XMC4000/../XMC4000/Endpoint_XMC4000.h **** 	}
 169:/opt/XMClib/XMC_Peripheral_Library_v2.1.16/ThirdPartyLibraries/USBlib/USB/Class/Device/../../Core/XMC4000/../XMC4000/Endpoint_XMC4000.h **** 
 170:/opt/XMClib/XMC_Peripheral_Library_v2.1.16/ThirdPartyLibraries/USBlib/USB/Class/Device/../../Core/XMC4000/../XMC4000/Endpoint_XMC4000.h **** 	/** Determines if the selected IN endpoint is ready for a new packet to be sent to the host.
 171:/opt/XMClib/XMC_Peripheral_Library_v2.1.16/ThirdPartyLibraries/USBlib/USB/Class/Device/../../Core/XMC4000/../XMC4000/Endpoint_XMC4000.h **** 	 *
 172:/opt/XMClib/XMC_Peripheral_Library_v2.1.16/ThirdPartyLibraries/USBlib/USB/Class/Device/../../Core/XMC4000/../XMC4000/Endpoint_XMC4000.h **** 	 *  \ingroup Group_EndpointPacketManagement
 173:/opt/XMClib/XMC_Peripheral_Library_v2.1.16/ThirdPartyLibraries/USBlib/USB/Class/Device/../../Core/XMC4000/../XMC4000/Endpoint_XMC4000.h **** 	 *
 174:/opt/XMClib/XMC_Peripheral_Library_v2.1.16/ThirdPartyLibraries/USBlib/USB/Class/Device/../../Core/XMC4000/../XMC4000/Endpoint_XMC4000.h **** 	 *  \return Boolean \c true if the current endpoint is ready for an IN packet, \c false otherwise.
 175:/opt/XMClib/XMC_Peripheral_Library_v2.1.16/ThirdPartyLibraries/USBlib/USB/Class/Device/../../Core/XMC4000/../XMC4000/Endpoint_XMC4000.h **** 	 */
 176:/opt/XMClib/XMC_Peripheral_Library_v2.1.16/ThirdPartyLibraries/USBlib/USB/Class/Device/../../Core/XMC4000/../XMC4000/Endpoint_XMC4000.h **** 	static inline bool Endpoint_IsINReady(void) ATTR_WARN_UNUSED_RESULT ATTR_ALWAYS_INLINE;
 177:/opt/XMClib/XMC_Peripheral_Library_v2.1.16/ThirdPartyLibraries/USBlib/USB/Class/Device/../../Core/XMC4000/../XMC4000/Endpoint_XMC4000.h **** 	static inline bool Endpoint_IsINReady(void)
 178:/opt/XMClib/XMC_Peripheral_Library_v2.1.16/ThirdPartyLibraries/USBlib/USB/Class/Device/../../Core/XMC4000/../XMC4000/Endpoint_XMC4000.h **** 	{
 179:/opt/XMClib/XMC_Peripheral_Library_v2.1.16/ThirdPartyLibraries/USBlib/USB/Class/Device/../../Core/XMC4000/../XMC4000/Endpoint_XMC4000.h **** 		USBD_Endpoint_t *ep = &device.Endpoints[device.CurrentEndpoint];
 180:/opt/XMClib/XMC_Peripheral_Library_v2.1.16/ThirdPartyLibraries/USBlib/USB/Class/Device/../../Core/XMC4000/../XMC4000/Endpoint_XMC4000.h **** 		return ep->InInUse == 0 && ep->IsEnabled;
 181:/opt/XMClib/XMC_Peripheral_Library_v2.1.16/ThirdPartyLibraries/USBlib/USB/Class/Device/../../Core/XMC4000/../XMC4000/Endpoint_XMC4000.h **** 	}
 182:/opt/XMClib/XMC_Peripheral_Library_v2.1.16/ThirdPartyLibraries/USBlib/USB/Class/Device/../../Core/XMC4000/../XMC4000/Endpoint_XMC4000.h **** 
 183:/opt/XMClib/XMC_Peripheral_Library_v2.1.16/ThirdPartyLibraries/USBlib/USB/Class/Device/../../Core/XMC4000/../XMC4000/Endpoint_XMC4000.h **** 	/** Determines if the selected OUT endpoint has received new packet from the host.
 184:/opt/XMClib/XMC_Peripheral_Library_v2.1.16/ThirdPartyLibraries/USBlib/USB/Class/Device/../../Core/XMC4000/../XMC4000/Endpoint_XMC4000.h **** 	 *
 185:/opt/XMClib/XMC_Peripheral_Library_v2.1.16/ThirdPartyLibraries/USBlib/USB/Class/Device/../../Core/XMC4000/../XMC4000/Endpoint_XMC4000.h **** 	 *  \ingroup Group_EndpointPacketManagement
 186:/opt/XMClib/XMC_Peripheral_Library_v2.1.16/ThirdPartyLibraries/USBlib/USB/Class/Device/../../Core/XMC4000/../XMC4000/Endpoint_XMC4000.h **** 	 *
 187:/opt/XMClib/XMC_Peripheral_Library_v2.1.16/ThirdPartyLibraries/USBlib/USB/Class/Device/../../Core/XMC4000/../XMC4000/Endpoint_XMC4000.h **** 	 *  \return Boolean \c true if current endpoint is has received an OUT packet, \c false otherwise.
 188:/opt/XMClib/XMC_Peripheral_Library_v2.1.16/ThirdPartyLibraries/USBlib/USB/Class/Device/../../Core/XMC4000/../XMC4000/Endpoint_XMC4000.h **** 	 */
 189:/opt/XMClib/XMC_Peripheral_Library_v2.1.16/ThirdPartyLibraries/USBlib/USB/Class/Device/../../Core/XMC4000/../XMC4000/Endpoint_XMC4000.h **** 	static inline bool Endpoint_IsOUTReceived(void) ATTR_WARN_UNUSED_RESULT ATTR_ALWAYS_INLINE;
 190:/opt/XMClib/XMC_Peripheral_Library_v2.1.16/ThirdPartyLibraries/USBlib/USB/Class/Device/../../Core/XMC4000/../XMC4000/Endpoint_XMC4000.h **** 	static inline bool Endpoint_IsOUTReceived(void)
 191:/opt/XMClib/XMC_Peripheral_Library_v2.1.16/ThirdPartyLibraries/USBlib/USB/Class/Device/../../Core/XMC4000/../XMC4000/Endpoint_XMC4000.h **** 	{
 192:/opt/XMClib/XMC_Peripheral_Library_v2.1.16/ThirdPartyLibraries/USBlib/USB/Class/Device/../../Core/XMC4000/../XMC4000/Endpoint_XMC4000.h **** 		USBD_Endpoint_t *ep = &device.Endpoints[device.CurrentEndpoint];
 193:/opt/XMClib/XMC_Peripheral_Library_v2.1.16/ThirdPartyLibraries/USBlib/USB/Class/Device/../../Core/XMC4000/../XMC4000/Endpoint_XMC4000.h **** 		return ep->IsOutRecieved;
 194:/opt/XMClib/XMC_Peripheral_Library_v2.1.16/ThirdPartyLibraries/USBlib/USB/Class/Device/../../Core/XMC4000/../XMC4000/Endpoint_XMC4000.h **** 	}
 195:/opt/XMClib/XMC_Peripheral_Library_v2.1.16/ThirdPartyLibraries/USBlib/USB/Class/Device/../../Core/XMC4000/../XMC4000/Endpoint_XMC4000.h **** 
 196:/opt/XMClib/XMC_Peripheral_Library_v2.1.16/ThirdPartyLibraries/USBlib/USB/Class/Device/../../Core/XMC4000/../XMC4000/Endpoint_XMC4000.h **** 	/** Determines the currently selected endpoint's direction.
 197:/opt/XMClib/XMC_Peripheral_Library_v2.1.16/ThirdPartyLibraries/USBlib/USB/Class/Device/../../Core/XMC4000/../XMC4000/Endpoint_XMC4000.h **** 	 *
 198:/opt/XMClib/XMC_Peripheral_Library_v2.1.16/ThirdPartyLibraries/USBlib/USB/Class/Device/../../Core/XMC4000/../XMC4000/Endpoint_XMC4000.h **** 	 *  \return The currently selected endpoint's direction, as a \c ENDPOINT_DIR_* mask.
 199:/opt/XMClib/XMC_Peripheral_Library_v2.1.16/ThirdPartyLibraries/USBlib/USB/Class/Device/../../Core/XMC4000/../XMC4000/Endpoint_XMC4000.h **** 	 */
 200:/opt/XMClib/XMC_Peripheral_Library_v2.1.16/ThirdPartyLibraries/USBlib/USB/Class/Device/../../Core/XMC4000/../XMC4000/Endpoint_XMC4000.h **** 	static inline uint8_t Endpoint_GetEndpointDirection(void) ATTR_WARN_UNUSED_RESULT ATTR_ALWAYS_INLI
 201:/opt/XMClib/XMC_Peripheral_Library_v2.1.16/ThirdPartyLibraries/USBlib/USB/Class/Device/../../Core/XMC4000/../XMC4000/Endpoint_XMC4000.h **** 	static inline uint8_t Endpoint_GetEndpointDirection(void)
 202:/opt/XMClib/XMC_Peripheral_Library_v2.1.16/ThirdPartyLibraries/USBlib/USB/Class/Device/../../Core/XMC4000/../XMC4000/Endpoint_XMC4000.h **** 	{
 203:/opt/XMClib/XMC_Peripheral_Library_v2.1.16/ThirdPartyLibraries/USBlib/USB/Class/Device/../../Core/XMC4000/../XMC4000/Endpoint_XMC4000.h **** 		USBD_Endpoint_t *ep = &device.Endpoints[device.CurrentEndpoint];
 204:/opt/XMClib/XMC_Peripheral_Library_v2.1.16/ThirdPartyLibraries/USBlib/USB/Class/Device/../../Core/XMC4000/../XMC4000/Endpoint_XMC4000.h **** 		return ep->Address & ENDPOINT_DIR_MASK;
 205:/opt/XMClib/XMC_Peripheral_Library_v2.1.16/ThirdPartyLibraries/USBlib/USB/Class/Device/../../Core/XMC4000/../XMC4000/Endpoint_XMC4000.h **** 	}
 206:/opt/XMClib/XMC_Peripheral_Library_v2.1.16/ThirdPartyLibraries/USBlib/USB/Class/Device/../../Core/XMC4000/../XMC4000/Endpoint_XMC4000.h **** 
 207:/opt/XMClib/XMC_Peripheral_Library_v2.1.16/ThirdPartyLibraries/USBlib/USB/Class/Device/../../Core/XMC4000/../XMC4000/Endpoint_XMC4000.h **** 	/** Indicates the number of bytes currently stored in the current endpoint's selected bank.
 208:/opt/XMClib/XMC_Peripheral_Library_v2.1.16/ThirdPartyLibraries/USBlib/USB/Class/Device/../../Core/XMC4000/../XMC4000/Endpoint_XMC4000.h **** 	 *
 209:/opt/XMClib/XMC_Peripheral_Library_v2.1.16/ThirdPartyLibraries/USBlib/USB/Class/Device/../../Core/XMC4000/../XMC4000/Endpoint_XMC4000.h **** 	 *  \ingroup Group_EndpointRW
 210:/opt/XMClib/XMC_Peripheral_Library_v2.1.16/ThirdPartyLibraries/USBlib/USB/Class/Device/../../Core/XMC4000/../XMC4000/Endpoint_XMC4000.h **** 	 *
 211:/opt/XMClib/XMC_Peripheral_Library_v2.1.16/ThirdPartyLibraries/USBlib/USB/Class/Device/../../Core/XMC4000/../XMC4000/Endpoint_XMC4000.h **** 	 *  \return Total number of bytes in the currently selected Endpoint's FIFO buffer.
 212:/opt/XMClib/XMC_Peripheral_Library_v2.1.16/ThirdPartyLibraries/USBlib/USB/Class/Device/../../Core/XMC4000/../XMC4000/Endpoint_XMC4000.h **** 	 */
 213:/opt/XMClib/XMC_Peripheral_Library_v2.1.16/ThirdPartyLibraries/USBlib/USB/Class/Device/../../Core/XMC4000/../XMC4000/Endpoint_XMC4000.h **** 	static inline uint16_t Endpoint_BytesInEndpoint(void) ATTR_WARN_UNUSED_RESULT ATTR_ALWAYS_INLINE;
 214:/opt/XMClib/XMC_Peripheral_Library_v2.1.16/ThirdPartyLibraries/USBlib/USB/Class/Device/../../Core/XMC4000/../XMC4000/Endpoint_XMC4000.h **** 	static inline uint16_t Endpoint_BytesInEndpoint(void)
 471              		.loc 2 214 25 view .LVU123
 472              	.LBB67:
 215:/opt/XMClib/XMC_Peripheral_Library_v2.1.16/ThirdPartyLibraries/USBlib/USB/Class/Device/../../Core/XMC4000/../XMC4000/Endpoint_XMC4000.h **** 	{
 216:/opt/XMClib/XMC_Peripheral_Library_v2.1.16/ThirdPartyLibraries/USBlib/USB/Class/Device/../../Core/XMC4000/../XMC4000/Endpoint_XMC4000.h **** 		USBD_Endpoint_t *ep = &device.Endpoints[device.CurrentEndpoint];
 473              		.loc 2 216 3 view .LVU124
 474              	.LVL44:
 217:/opt/XMClib/XMC_Peripheral_Library_v2.1.16/ThirdPartyLibraries/USBlib/USB/Class/Device/../../Core/XMC4000/../XMC4000/Endpoint_XMC4000.h **** 		if (ep->Direction)
 475              		.loc 2 217 3 view .LVU125
 476              		.loc 2 217 7 is_stmt 0 view .LVU126
 477 0024 2C22     		movs	r2, #44
 478 0026 02FB0312 		mla	r2, r2, r3, r1
 479              		.loc 2 217 6 view .LVU127
 480 002a 92F90420 		ldrsb	r2, [r2, #4]
 481 002e 002A     		cmp	r2, #0
 482 0030 07DB     		blt	.L42
 218:/opt/XMClib/XMC_Peripheral_Library_v2.1.16/ThirdPartyLibraries/USBlib/USB/Class/Device/../../Core/XMC4000/../XMC4000/Endpoint_XMC4000.h **** 			return ep->InBytesAvailable;
 219:/opt/XMClib/XMC_Peripheral_Library_v2.1.16/ThirdPartyLibraries/USBlib/USB/Class/Device/../../Core/XMC4000/../XMC4000/Endpoint_XMC4000.h **** 		else
 220:/opt/XMClib/XMC_Peripheral_Library_v2.1.16/ThirdPartyLibraries/USBlib/USB/Class/Device/../../Core/XMC4000/../XMC4000/Endpoint_XMC4000.h **** 			return ep->OutBytesAvailable;
 483              		.loc 2 220 4 is_stmt 1 view .LVU128
 484              		.loc 2 220 13 is_stmt 0 view .LVU129
 485 0032 124A     		ldr	r2, .L45+4
 486 0034 2C21     		movs	r1, #44
 487 0036 01FB0323 		mla	r3, r1, r3, r2
 488              	.LVL45:
 489              		.loc 2 220 13 view .LVU130
 490 003a 9B89     		ldrh	r3, [r3, #12]
 491              	.L36:
 492              	.LBE67:
 493              	.LBE66:
 494              		.loc 1 200 5 view .LVU131
 495 003c 3BB9     		cbnz	r3, .L43
 201:/opt/XMClib/XMC_Peripheral_Library_v2.1.16/ThirdPartyLibraries/USBlib/USB/Class/Device/CDCClassDevice.c **** 	  return ENDPOINT_READYWAIT_NoError;
 496              		.loc 1 201 11 view .LVU132
 497 003e 0024     		movs	r4, #0
 498 0040 15E0     		b	.L34
 499              	.LVL46:
 500              	.L42:
 501              	.LBB69:
 502              	.LBB68:
 218:/opt/XMClib/XMC_Peripheral_Library_v2.1.16/ThirdPartyLibraries/USBlib/USB/Class/Device/../../Core/XMC4000/../XMC4000/Endpoint_XMC4000.h **** 			return ep->InBytesAvailable;
 503              		.loc 2 218 4 is_stmt 1 view .LVU133
 218:/opt/XMClib/XMC_Peripheral_Library_v2.1.16/ThirdPartyLibraries/USBlib/USB/Class/Device/../../Core/XMC4000/../XMC4000/Endpoint_XMC4000.h **** 			return ep->InBytesAvailable;
 504              		.loc 2 218 13 is_stmt 0 view .LVU134
 505 0042 0A46     		mov	r2, r1
 506 0044 2C21     		movs	r1, #44
 507 0046 01FB0323 		mla	r3, r1, r3, r2
 508              	.LVL47:
 218:/opt/XMClib/XMC_Peripheral_Library_v2.1.16/ThirdPartyLibraries/USBlib/USB/Class/Device/../../Core/XMC4000/../XMC4000/Endpoint_XMC4000.h **** 			return ep->InBytesAvailable;
 509              		.loc 2 218 13 view .LVU135
 510 004a 9B8B     		ldrh	r3, [r3, #28]
 511 004c F6E7     		b	.L36
 512              	.L43:
 218:/opt/XMClib/XMC_Peripheral_Library_v2.1.16/ThirdPartyLibraries/USBlib/USB/Class/Device/../../Core/XMC4000/../XMC4000/Endpoint_XMC4000.h **** 			return ep->InBytesAvailable;
 513              		.loc 2 218 13 view .LVU136
 514              	.LBE68:
 515              	.LBE69:
 202:/opt/XMClib/XMC_Peripheral_Library_v2.1.16/ThirdPartyLibraries/USBlib/USB/Class/Device/CDCClassDevice.c **** 
 203:/opt/XMClib/XMC_Peripheral_Library_v2.1.16/ThirdPartyLibraries/USBlib/USB/Class/Device/CDCClassDevice.c **** 	bool BankFull = !(Endpoint_IsReadWriteAllowed());
 516              		.loc 1 203 2 is_stmt 1 view .LVU137
 517              		.loc 1 203 20 is_stmt 0 view .LVU138
 518 004e FFF7FEFF 		bl	Endpoint_IsReadWriteAllowed
 519              	.LVL48:
 520              		.loc 1 203 20 view .LVU139
 521 0052 0446     		mov	r4, r0
 522              	.LVL49:
 204:/opt/XMClib/XMC_Peripheral_Library_v2.1.16/ThirdPartyLibraries/USBlib/USB/Class/Device/CDCClassDevice.c **** 
 205:/opt/XMClib/XMC_Peripheral_Library_v2.1.16/ThirdPartyLibraries/USBlib/USB/Class/Device/CDCClassDevice.c **** 	Endpoint_ClearIN();
 523              		.loc 1 205 2 is_stmt 1 view .LVU140
 524 0054 FFF7FEFF 		bl	Endpoint_ClearIN
 525              	.LVL50:
 206:/opt/XMClib/XMC_Peripheral_Library_v2.1.16/ThirdPartyLibraries/USBlib/USB/Class/Device/CDCClassDevice.c **** 
 207:/opt/XMClib/XMC_Peripheral_Library_v2.1.16/ThirdPartyLibraries/USBlib/USB/Class/Device/CDCClassDevice.c **** 	if (BankFull)
 526              		.loc 1 207 2 view .LVU141
 527              		.loc 1 207 5 is_stmt 0 view .LVU142
 528 0058 0CB1     		cbz	r4, .L44
 208:/opt/XMClib/XMC_Peripheral_Library_v2.1.16/ThirdPartyLibraries/USBlib/USB/Class/Device/CDCClassDevice.c **** 	{
 209:/opt/XMClib/XMC_Peripheral_Library_v2.1.16/ThirdPartyLibraries/USBlib/USB/Class/Device/CDCClassDevice.c **** 		if ((ErrorCode = Endpoint_WaitUntilReady()) != ENDPOINT_READYWAIT_NoError)
 210:/opt/XMClib/XMC_Peripheral_Library_v2.1.16/ThirdPartyLibraries/USBlib/USB/Class/Device/CDCClassDevice.c **** 		  return ErrorCode;
 211:/opt/XMClib/XMC_Peripheral_Library_v2.1.16/ThirdPartyLibraries/USBlib/USB/Class/Device/CDCClassDevice.c **** 
 212:/opt/XMClib/XMC_Peripheral_Library_v2.1.16/ThirdPartyLibraries/USBlib/USB/Class/Device/CDCClassDevice.c **** 		Endpoint_ClearIN();
 213:/opt/XMClib/XMC_Peripheral_Library_v2.1.16/ThirdPartyLibraries/USBlib/USB/Class/Device/CDCClassDevice.c **** 	}
 214:/opt/XMClib/XMC_Peripheral_Library_v2.1.16/ThirdPartyLibraries/USBlib/USB/Class/Device/CDCClassDevice.c **** 
 215:/opt/XMClib/XMC_Peripheral_Library_v2.1.16/ThirdPartyLibraries/USBlib/USB/Class/Device/CDCClassDevice.c **** 	return ENDPOINT_READYWAIT_NoError;
 529              		.loc 1 215 9 view .LVU143
 530 005a 0024     		movs	r4, #0
 531              	.LVL51:
 532              		.loc 1 215 9 view .LVU144
 533 005c 07E0     		b	.L34
 534              	.LVL52:
 535              	.L44:
 209:/opt/XMClib/XMC_Peripheral_Library_v2.1.16/ThirdPartyLibraries/USBlib/USB/Class/Device/CDCClassDevice.c **** 		  return ErrorCode;
 536              		.loc 1 209 3 is_stmt 1 view .LVU145
 209:/opt/XMClib/XMC_Peripheral_Library_v2.1.16/ThirdPartyLibraries/USBlib/USB/Class/Device/CDCClassDevice.c **** 		  return ErrorCode;
 537              		.loc 1 209 20 is_stmt 0 view .LVU146
 538 005e FFF7FEFF 		bl	Endpoint_WaitUntilReady
 539              	.LVL53:
 209:/opt/XMClib/XMC_Peripheral_Library_v2.1.16/ThirdPartyLibraries/USBlib/USB/Class/Device/CDCClassDevice.c **** 		  return ErrorCode;
 540              		.loc 1 209 6 view .LVU147
 541 0062 0446     		mov	r4, r0
 542              	.LVL54:
 209:/opt/XMClib/XMC_Peripheral_Library_v2.1.16/ThirdPartyLibraries/USBlib/USB/Class/Device/CDCClassDevice.c **** 		  return ErrorCode;
 543              		.loc 1 209 6 view .LVU148
 544 0064 18B9     		cbnz	r0, .L34
 212:/opt/XMClib/XMC_Peripheral_Library_v2.1.16/ThirdPartyLibraries/USBlib/USB/Class/Device/CDCClassDevice.c **** 	}
 545              		.loc 1 212 3 is_stmt 1 view .LVU149
 546 0066 FFF7FEFF 		bl	Endpoint_ClearIN
 547              	.LVL55:
 212:/opt/XMClib/XMC_Peripheral_Library_v2.1.16/ThirdPartyLibraries/USBlib/USB/Class/Device/CDCClassDevice.c **** 	}
 548              		.loc 1 212 3 is_stmt 0 view .LVU150
 549 006a 00E0     		b	.L34
 550              	.LVL56:
 551              	.L37:
 194:/opt/XMClib/XMC_Peripheral_Library_v2.1.16/ThirdPartyLibraries/USBlib/USB/Class/Device/CDCClassDevice.c **** 
 552              		.loc 1 194 11 view .LVU151
 553 006c 0224     		movs	r4, #2
 554              	.LVL57:
 555              	.L34:
 216:/opt/XMClib/XMC_Peripheral_Library_v2.1.16/ThirdPartyLibraries/USBlib/USB/Class/Device/CDCClassDevice.c **** }
 556              		.loc 1 216 1 view .LVU152
 557 006e 2046     		mov	r0, r4
 558 0070 10BD     		pop	{r4, pc}
 559              	.LVL58:
 560              	.L38:
 194:/opt/XMClib/XMC_Peripheral_Library_v2.1.16/ThirdPartyLibraries/USBlib/USB/Class/Device/CDCClassDevice.c **** 
 561              		.loc 1 194 11 view .LVU153
 562 0072 0224     		movs	r4, #2
 563 0074 FBE7     		b	.L34
 564              	.L46:
 565 0076 00BF     		.align	2
 566              	.L45:
 567 0078 00000000 		.word	USB_DeviceState
 568 007c 00000000 		.word	device
 569              		.cfi_endproc
 570              	.LFE199:
 572              		.section	.text.CDC_Device_USBTask,"ax",%progbits
 573              		.align	1
 574              		.global	CDC_Device_USBTask
 575              		.syntax unified
 576              		.thumb
 577              		.thumb_func
 578              		.fpu fpv4-sp-d16
 580              	CDC_Device_USBTask:
 581              	.LVL59:
 582              	.LFB195:
 136:/opt/XMClib/XMC_Peripheral_Library_v2.1.16/ThirdPartyLibraries/USBlib/USB/Class/Device/CDCClassDevice.c **** 	if ((USB_DeviceState != DEVICE_STATE_Configured) || !(CDCInterfaceInfo->State.LineEncoding.BaudRat
 583              		.loc 1 136 1 is_stmt 1 view -0
 584              		.cfi_startproc
 585              		@ args = 0, pretend = 0, frame = 0
 586              		@ frame_needed = 0, uses_anonymous_args = 0
 136:/opt/XMClib/XMC_Peripheral_Library_v2.1.16/ThirdPartyLibraries/USBlib/USB/Class/Device/CDCClassDevice.c **** 	if ((USB_DeviceState != DEVICE_STATE_Configured) || !(CDCInterfaceInfo->State.LineEncoding.BaudRat
 587              		.loc 1 136 1 is_stmt 0 view .LVU155
 588 0000 08B5     		push	{r3, lr}
 589              	.LCFI9:
 590              		.cfi_def_cfa_offset 8
 591              		.cfi_offset 3, -8
 592              		.cfi_offset 14, -4
 137:/opt/XMClib/XMC_Peripheral_Library_v2.1.16/ThirdPartyLibraries/USBlib/USB/Class/Device/CDCClassDevice.c **** 	  return;
 593              		.loc 1 137 2 is_stmt 1 view .LVU156
 137:/opt/XMClib/XMC_Peripheral_Library_v2.1.16/ThirdPartyLibraries/USBlib/USB/Class/Device/CDCClassDevice.c **** 	  return;
 594              		.loc 1 137 23 is_stmt 0 view .LVU157
 595 0002 114B     		ldr	r3, .L51
 596 0004 1B78     		ldrb	r3, [r3]	@ zero_extendqisi2
 597 0006 DBB2     		uxtb	r3, r3
 137:/opt/XMClib/XMC_Peripheral_Library_v2.1.16/ThirdPartyLibraries/USBlib/USB/Class/Device/CDCClassDevice.c **** 	  return;
 598              		.loc 1 137 5 view .LVU158
 599 0008 042B     		cmp	r3, #4
 600 000a 1CD1     		bne	.L47
 137:/opt/XMClib/XMC_Peripheral_Library_v2.1.16/ThirdPartyLibraries/USBlib/USB/Class/Device/CDCClassDevice.c **** 	  return;
 601              		.loc 1 137 92 discriminator 1 view .LVU159
 602 000c 8369     		ldr	r3, [r0, #24]	@ unaligned
 137:/opt/XMClib/XMC_Peripheral_Library_v2.1.16/ThirdPartyLibraries/USBlib/USB/Class/Device/CDCClassDevice.c **** 	  return;
 603              		.loc 1 137 51 discriminator 1 view .LVU160
 604 000e D3B1     		cbz	r3, .L47
 141:/opt/XMClib/XMC_Peripheral_Library_v2.1.16/ThirdPartyLibraries/USBlib/USB/Class/Device/CDCClassDevice.c **** 
 605              		.loc 1 141 2 is_stmt 1 view .LVU161
 606 0010 8378     		ldrb	r3, [r0, #2]	@ zero_extendqisi2
 607              	.LVL60:
 608              	.LBB70:
 609              	.LBI70:
 129:/opt/XMClib/XMC_Peripheral_Library_v2.1.16/ThirdPartyLibraries/USBlib/USB/Class/Device/../../Core/XMC4000/../XMC4000/Endpoint_XMC4000.h **** 	{
 610              		.loc 2 129 21 view .LVU162
 611              	.LBB71:
 131:/opt/XMClib/XMC_Peripheral_Library_v2.1.16/ThirdPartyLibraries/USBlib/USB/Class/Device/../../Core/XMC4000/../XMC4000/Endpoint_XMC4000.h **** 		device.CurrentDirection = (Address & ENDPOINT_DIR_MASK);
 612              		.loc 2 131 3 view .LVU163
 131:/opt/XMClib/XMC_Peripheral_Library_v2.1.16/ThirdPartyLibraries/USBlib/USB/Class/Device/../../Core/XMC4000/../XMC4000/Endpoint_XMC4000.h **** 		device.CurrentDirection = (Address & ENDPOINT_DIR_MASK);
 613              		.loc 2 131 36 is_stmt 0 view .LVU164
 614 0012 03F00F02 		and	r2, r3, #15
 131:/opt/XMClib/XMC_Peripheral_Library_v2.1.16/ThirdPartyLibraries/USBlib/USB/Class/Device/../../Core/XMC4000/../XMC4000/Endpoint_XMC4000.h **** 		device.CurrentDirection = (Address & ENDPOINT_DIR_MASK);
 615              		.loc 2 131 26 view .LVU165
 616 0016 0D49     		ldr	r1, .L51+4
 617 0018 81F83C21 		strb	r2, [r1, #316]
 132:/opt/XMClib/XMC_Peripheral_Library_v2.1.16/ThirdPartyLibraries/USBlib/USB/Class/Device/../../Core/XMC4000/../XMC4000/Endpoint_XMC4000.h **** 	}
 618              		.loc 2 132 3 is_stmt 1 view .LVU166
 132:/opt/XMClib/XMC_Peripheral_Library_v2.1.16/ThirdPartyLibraries/USBlib/USB/Class/Device/../../Core/XMC4000/../XMC4000/Endpoint_XMC4000.h **** 	}
 619              		.loc 2 132 38 is_stmt 0 view .LVU167
 620 001c 23F07F03 		bic	r3, r3, #127
 621              	.LVL61:
 132:/opt/XMClib/XMC_Peripheral_Library_v2.1.16/ThirdPartyLibraries/USBlib/USB/Class/Device/../../Core/XMC4000/../XMC4000/Endpoint_XMC4000.h **** 	}
 622              		.loc 2 132 27 view .LVU168
 623 0020 81F83D31 		strb	r3, [r1, #317]
 132:/opt/XMClib/XMC_Peripheral_Library_v2.1.16/ThirdPartyLibraries/USBlib/USB/Class/Device/../../Core/XMC4000/../XMC4000/Endpoint_XMC4000.h **** 	}
 624              		.loc 2 132 27 view .LVU169
 625              	.LBE71:
 626              	.LBE70:
 143:/opt/XMClib/XMC_Peripheral_Library_v2.1.16/ThirdPartyLibraries/USBlib/USB/Class/Device/CDCClassDevice.c **** 	  CDC_Device_Flush(CDCInterfaceInfo);
 627              		.loc 1 143 2 is_stmt 1 view .LVU170
 628              	.LBB72:
 629              	.LBI72:
 177:/opt/XMClib/XMC_Peripheral_Library_v2.1.16/ThirdPartyLibraries/USBlib/USB/Class/Device/../../Core/XMC4000/../XMC4000/Endpoint_XMC4000.h **** 	{
 630              		.loc 2 177 21 view .LVU171
 631              	.LBB73:
 179:/opt/XMClib/XMC_Peripheral_Library_v2.1.16/ThirdPartyLibraries/USBlib/USB/Class/Device/../../Core/XMC4000/../XMC4000/Endpoint_XMC4000.h **** 		return ep->InInUse == 0 && ep->IsEnabled;
 632              		.loc 2 179 3 view .LVU172
 633              	.LVL62:
 180:/opt/XMClib/XMC_Peripheral_Library_v2.1.16/ThirdPartyLibraries/USBlib/USB/Class/Device/../../Core/XMC4000/../XMC4000/Endpoint_XMC4000.h **** 	}
 634              		.loc 2 180 3 view .LVU173
 180:/opt/XMClib/XMC_Peripheral_Library_v2.1.16/ThirdPartyLibraries/USBlib/USB/Class/Device/../../Core/XMC4000/../XMC4000/Endpoint_XMC4000.h **** 	}
 635              		.loc 2 180 12 is_stmt 0 view .LVU174
 636 0024 2C23     		movs	r3, #44
 637 0026 03FB0213 		mla	r3, r3, r2, r1
 638 002a 9B68     		ldr	r3, [r3, #8]
 180:/opt/XMClib/XMC_Peripheral_Library_v2.1.16/ThirdPartyLibraries/USBlib/USB/Class/Device/../../Core/XMC4000/../XMC4000/Endpoint_XMC4000.h **** 	}
 639              		.loc 2 180 27 view .LVU175
 640 002c 13F0100F 		tst	r3, #16
 641 0030 09D1     		bne	.L47
 642 0032 0B46     		mov	r3, r1
 643 0034 2C21     		movs	r1, #44
 644 0036 01FB0232 		mla	r2, r1, r2, r3
 645              	.LVL63:
 180:/opt/XMClib/XMC_Peripheral_Library_v2.1.16/ThirdPartyLibraries/USBlib/USB/Class/Device/../../Core/XMC4000/../XMC4000/Endpoint_XMC4000.h **** 	}
 646              		.loc 2 180 27 view .LVU176
 647 003a 137A     		ldrb	r3, [r2, #8]	@ zero_extendqisi2
 648 003c 13F0020F 		tst	r3, #2
 649 0040 01D0     		beq	.L47
 650              	.LBE73:
 651              	.LBE72:
 144:/opt/XMClib/XMC_Peripheral_Library_v2.1.16/ThirdPartyLibraries/USBlib/USB/Class/Device/CDCClassDevice.c **** 	#endif
 652              		.loc 1 144 4 is_stmt 1 view .LVU177
 653 0042 FFF7FEFF 		bl	CDC_Device_Flush
 654              	.LVL64:
 655              	.L47:
 146:/opt/XMClib/XMC_Peripheral_Library_v2.1.16/ThirdPartyLibraries/USBlib/USB/Class/Device/CDCClassDevice.c **** 
 656              		.loc 1 146 1 is_stmt 0 view .LVU178
 657 0046 08BD     		pop	{r3, pc}
 658              	.L52:
 659              		.align	2
 660              	.L51:
 661 0048 00000000 		.word	USB_DeviceState
 662 004c 00000000 		.word	device
 663              		.cfi_endproc
 664              	.LFE195:
 666              		.section	.text.CDC_Device_BytesReceived,"ax",%progbits
 667              		.align	1
 668              		.global	CDC_Device_BytesReceived
 669              		.syntax unified
 670              		.thumb
 671              		.thumb_func
 672              		.fpu fpv4-sp-d16
 674              	CDC_Device_BytesReceived:
 675              	.LVL65:
 676              	.LFB200:
 217:/opt/XMClib/XMC_Peripheral_Library_v2.1.16/ThirdPartyLibraries/USBlib/USB/Class/Device/CDCClassDevice.c **** 
 218:/opt/XMClib/XMC_Peripheral_Library_v2.1.16/ThirdPartyLibraries/USBlib/USB/Class/Device/CDCClassDevice.c **** uint16_t CDC_Device_BytesReceived(USB_ClassInfo_CDC_Device_t* const CDCInterfaceInfo)
 219:/opt/XMClib/XMC_Peripheral_Library_v2.1.16/ThirdPartyLibraries/USBlib/USB/Class/Device/CDCClassDevice.c **** {
 677              		.loc 1 219 1 is_stmt 1 view -0
 678              		.cfi_startproc
 679              		@ args = 0, pretend = 0, frame = 0
 680              		@ frame_needed = 0, uses_anonymous_args = 0
 681              		.loc 1 219 1 is_stmt 0 view .LVU180
 682 0000 10B5     		push	{r4, lr}
 683              	.LCFI10:
 684              		.cfi_def_cfa_offset 8
 685              		.cfi_offset 4, -8
 686              		.cfi_offset 14, -4
 220:/opt/XMClib/XMC_Peripheral_Library_v2.1.16/ThirdPartyLibraries/USBlib/USB/Class/Device/CDCClassDevice.c **** 	if ((USB_DeviceState != DEVICE_STATE_Configured) || !(CDCInterfaceInfo->State.LineEncoding.BaudRat
 687              		.loc 1 220 2 is_stmt 1 view .LVU181
 688              		.loc 1 220 23 is_stmt 0 view .LVU182
 689 0002 1A4B     		ldr	r3, .L62
 690 0004 1B78     		ldrb	r3, [r3]	@ zero_extendqisi2
 691 0006 DBB2     		uxtb	r3, r3
 692              		.loc 1 220 5 view .LVU183
 693 0008 042B     		cmp	r3, #4
 694 000a 27D1     		bne	.L57
 695              		.loc 1 220 92 discriminator 1 view .LVU184
 696 000c 8369     		ldr	r3, [r0, #24]	@ unaligned
 697              		.loc 1 220 51 discriminator 1 view .LVU185
 698 000e 43B3     		cbz	r3, .L58
 221:/opt/XMClib/XMC_Peripheral_Library_v2.1.16/ThirdPartyLibraries/USBlib/USB/Class/Device/CDCClassDevice.c **** 	  return 0;
 222:/opt/XMClib/XMC_Peripheral_Library_v2.1.16/ThirdPartyLibraries/USBlib/USB/Class/Device/CDCClassDevice.c **** 
 223:/opt/XMClib/XMC_Peripheral_Library_v2.1.16/ThirdPartyLibraries/USBlib/USB/Class/Device/CDCClassDevice.c **** 	Endpoint_SelectEndpoint(CDCInterfaceInfo->Config.DataOUTEndpoint.Address);
 699              		.loc 1 223 2 is_stmt 1 view .LVU186
 700 0010 027A     		ldrb	r2, [r0, #8]	@ zero_extendqisi2
 701              	.LVL66:
 702              	.LBB74:
 703              	.LBI74:
 129:/opt/XMClib/XMC_Peripheral_Library_v2.1.16/ThirdPartyLibraries/USBlib/USB/Class/Device/../../Core/XMC4000/../XMC4000/Endpoint_XMC4000.h **** 	{
 704              		.loc 2 129 21 view .LVU187
 705              	.LBB75:
 131:/opt/XMClib/XMC_Peripheral_Library_v2.1.16/ThirdPartyLibraries/USBlib/USB/Class/Device/../../Core/XMC4000/../XMC4000/Endpoint_XMC4000.h **** 		device.CurrentDirection = (Address & ENDPOINT_DIR_MASK);
 706              		.loc 2 131 3 view .LVU188
 131:/opt/XMClib/XMC_Peripheral_Library_v2.1.16/ThirdPartyLibraries/USBlib/USB/Class/Device/../../Core/XMC4000/../XMC4000/Endpoint_XMC4000.h **** 		device.CurrentDirection = (Address & ENDPOINT_DIR_MASK);
 707              		.loc 2 131 36 is_stmt 0 view .LVU189
 708 0012 02F00F03 		and	r3, r2, #15
 131:/opt/XMClib/XMC_Peripheral_Library_v2.1.16/ThirdPartyLibraries/USBlib/USB/Class/Device/../../Core/XMC4000/../XMC4000/Endpoint_XMC4000.h **** 		device.CurrentDirection = (Address & ENDPOINT_DIR_MASK);
 709              		.loc 2 131 26 view .LVU190
 710 0016 1649     		ldr	r1, .L62+4
 711 0018 81F83C31 		strb	r3, [r1, #316]
 132:/opt/XMClib/XMC_Peripheral_Library_v2.1.16/ThirdPartyLibraries/USBlib/USB/Class/Device/../../Core/XMC4000/../XMC4000/Endpoint_XMC4000.h **** 	}
 712              		.loc 2 132 3 is_stmt 1 view .LVU191
 132:/opt/XMClib/XMC_Peripheral_Library_v2.1.16/ThirdPartyLibraries/USBlib/USB/Class/Device/../../Core/XMC4000/../XMC4000/Endpoint_XMC4000.h **** 	}
 713              		.loc 2 132 38 is_stmt 0 view .LVU192
 714 001c 22F07F02 		bic	r2, r2, #127
 715              	.LVL67:
 132:/opt/XMClib/XMC_Peripheral_Library_v2.1.16/ThirdPartyLibraries/USBlib/USB/Class/Device/../../Core/XMC4000/../XMC4000/Endpoint_XMC4000.h **** 	}
 716              		.loc 2 132 27 view .LVU193
 717 0020 81F83D21 		strb	r2, [r1, #317]
 132:/opt/XMClib/XMC_Peripheral_Library_v2.1.16/ThirdPartyLibraries/USBlib/USB/Class/Device/../../Core/XMC4000/../XMC4000/Endpoint_XMC4000.h **** 	}
 718              		.loc 2 132 27 view .LVU194
 719              	.LBE75:
 720              	.LBE74:
 224:/opt/XMClib/XMC_Peripheral_Library_v2.1.16/ThirdPartyLibraries/USBlib/USB/Class/Device/CDCClassDevice.c **** 
 225:/opt/XMClib/XMC_Peripheral_Library_v2.1.16/ThirdPartyLibraries/USBlib/USB/Class/Device/CDCClassDevice.c **** 	if (Endpoint_IsOUTReceived())
 721              		.loc 1 225 2 is_stmt 1 view .LVU195
 722              	.LBB76:
 723              	.LBI76:
 190:/opt/XMClib/XMC_Peripheral_Library_v2.1.16/ThirdPartyLibraries/USBlib/USB/Class/Device/../../Core/XMC4000/../XMC4000/Endpoint_XMC4000.h **** 	{
 724              		.loc 2 190 21 view .LVU196
 725              	.LBB77:
 192:/opt/XMClib/XMC_Peripheral_Library_v2.1.16/ThirdPartyLibraries/USBlib/USB/Class/Device/../../Core/XMC4000/../XMC4000/Endpoint_XMC4000.h **** 		return ep->IsOutRecieved;
 726              		.loc 2 192 3 view .LVU197
 727              	.LVL68:
 193:/opt/XMClib/XMC_Peripheral_Library_v2.1.16/ThirdPartyLibraries/USBlib/USB/Class/Device/../../Core/XMC4000/../XMC4000/Endpoint_XMC4000.h **** 	}
 728              		.loc 2 193 3 view .LVU198
 193:/opt/XMClib/XMC_Peripheral_Library_v2.1.16/ThirdPartyLibraries/USBlib/USB/Class/Device/../../Core/XMC4000/../XMC4000/Endpoint_XMC4000.h **** 	}
 729              		.loc 2 193 12 is_stmt 0 view .LVU199
 730 0024 2C22     		movs	r2, #44
 731 0026 02FB0312 		mla	r2, r2, r3, r1
 732 002a 9268     		ldr	r2, [r2, #8]
 733              	.LBE77:
 734              	.LBE76:
 735              		.loc 1 225 5 view .LVU200
 736 002c 12F0200F 		tst	r2, #32
 737 0030 19D0     		beq	.L59
 226:/opt/XMClib/XMC_Peripheral_Library_v2.1.16/ThirdPartyLibraries/USBlib/USB/Class/Device/CDCClassDevice.c **** 	{
 227:/opt/XMClib/XMC_Peripheral_Library_v2.1.16/ThirdPartyLibraries/USBlib/USB/Class/Device/CDCClassDevice.c **** 		if (!(Endpoint_BytesInEndpoint()))
 738              		.loc 1 227 3 is_stmt 1 view .LVU201
 739              	.LBB78:
 740              	.LBI78:
 214:/opt/XMClib/XMC_Peripheral_Library_v2.1.16/ThirdPartyLibraries/USBlib/USB/Class/Device/../../Core/XMC4000/../XMC4000/Endpoint_XMC4000.h **** 	{
 741              		.loc 2 214 25 view .LVU202
 742              	.LBB79:
 216:/opt/XMClib/XMC_Peripheral_Library_v2.1.16/ThirdPartyLibraries/USBlib/USB/Class/Device/../../Core/XMC4000/../XMC4000/Endpoint_XMC4000.h **** 		if (ep->Direction)
 743              		.loc 2 216 3 view .LVU203
 744              	.LVL69:
 217:/opt/XMClib/XMC_Peripheral_Library_v2.1.16/ThirdPartyLibraries/USBlib/USB/Class/Device/../../Core/XMC4000/../XMC4000/Endpoint_XMC4000.h **** 			return ep->InBytesAvailable;
 745              		.loc 2 217 3 view .LVU204
 217:/opt/XMClib/XMC_Peripheral_Library_v2.1.16/ThirdPartyLibraries/USBlib/USB/Class/Device/../../Core/XMC4000/../XMC4000/Endpoint_XMC4000.h **** 			return ep->InBytesAvailable;
 746              		.loc 2 217 7 is_stmt 0 view .LVU205
 747 0032 2C22     		movs	r2, #44
 748 0034 02FB0312 		mla	r2, r2, r3, r1
 217:/opt/XMClib/XMC_Peripheral_Library_v2.1.16/ThirdPartyLibraries/USBlib/USB/Class/Device/../../Core/XMC4000/../XMC4000/Endpoint_XMC4000.h **** 			return ep->InBytesAvailable;
 749              		.loc 2 217 6 view .LVU206
 750 0038 92F90420 		ldrsb	r2, [r2, #4]
 751 003c 002A     		cmp	r2, #0
 752 003e 08DB     		blt	.L61
 753              		.loc 2 220 4 is_stmt 1 view .LVU207
 754              		.loc 2 220 13 is_stmt 0 view .LVU208
 755 0040 0B4A     		ldr	r2, .L62+4
 756 0042 2C21     		movs	r1, #44
 757 0044 01FB0323 		mla	r3, r1, r3, r2
 758              	.LVL70:
 759              		.loc 2 220 13 view .LVU209
 760 0048 9C89     		ldrh	r4, [r3, #12]
 761              	.L56:
 762              	.LBE79:
 763              	.LBE78:
 764              		.loc 1 227 6 view .LVU210
 765 004a 44B9     		cbnz	r4, .L54
 228:/opt/XMClib/XMC_Peripheral_Library_v2.1.16/ThirdPartyLibraries/USBlib/USB/Class/Device/CDCClassDevice.c **** 		{
 229:/opt/XMClib/XMC_Peripheral_Library_v2.1.16/ThirdPartyLibraries/USBlib/USB/Class/Device/CDCClassDevice.c **** 			Endpoint_ClearOUT();
 766              		.loc 1 229 4 is_stmt 1 view .LVU211
 767 004c FFF7FEFF 		bl	Endpoint_ClearOUT
 768              	.LVL71:
 230:/opt/XMClib/XMC_Peripheral_Library_v2.1.16/ThirdPartyLibraries/USBlib/USB/Class/Device/CDCClassDevice.c **** 			return 0;
 769              		.loc 1 230 4 view .LVU212
 770              		.loc 1 230 11 is_stmt 0 view .LVU213
 771 0050 05E0     		b	.L54
 772              	.LVL72:
 773              	.L61:
 774              	.LBB81:
 775              	.LBB80:
 218:/opt/XMClib/XMC_Peripheral_Library_v2.1.16/ThirdPartyLibraries/USBlib/USB/Class/Device/../../Core/XMC4000/../XMC4000/Endpoint_XMC4000.h **** 		else
 776              		.loc 2 218 4 is_stmt 1 view .LVU214
 218:/opt/XMClib/XMC_Peripheral_Library_v2.1.16/ThirdPartyLibraries/USBlib/USB/Class/Device/../../Core/XMC4000/../XMC4000/Endpoint_XMC4000.h **** 		else
 777              		.loc 2 218 13 is_stmt 0 view .LVU215
 778 0052 2C22     		movs	r2, #44
 779 0054 02FB0313 		mla	r3, r2, r3, r1
 780              	.LVL73:
 218:/opt/XMClib/XMC_Peripheral_Library_v2.1.16/ThirdPartyLibraries/USBlib/USB/Class/Device/../../Core/XMC4000/../XMC4000/Endpoint_XMC4000.h **** 		else
 781              		.loc 2 218 13 view .LVU216
 782 0058 9C8B     		ldrh	r4, [r3, #28]
 783 005a F6E7     		b	.L56
 784              	.L57:
 218:/opt/XMClib/XMC_Peripheral_Library_v2.1.16/ThirdPartyLibraries/USBlib/USB/Class/Device/../../Core/XMC4000/../XMC4000/Endpoint_XMC4000.h **** 		else
 785              		.loc 2 218 13 view .LVU217
 786              	.LBE80:
 787              	.LBE81:
 221:/opt/XMClib/XMC_Peripheral_Library_v2.1.16/ThirdPartyLibraries/USBlib/USB/Class/Device/CDCClassDevice.c **** 
 788              		.loc 1 221 11 view .LVU218
 789 005c 0024     		movs	r4, #0
 790              	.LVL74:
 791              	.L54:
 231:/opt/XMClib/XMC_Peripheral_Library_v2.1.16/ThirdPartyLibraries/USBlib/USB/Class/Device/CDCClassDevice.c **** 		}
 232:/opt/XMClib/XMC_Peripheral_Library_v2.1.16/ThirdPartyLibraries/USBlib/USB/Class/Device/CDCClassDevice.c **** 		else
 233:/opt/XMClib/XMC_Peripheral_Library_v2.1.16/ThirdPartyLibraries/USBlib/USB/Class/Device/CDCClassDevice.c **** 		{
 234:/opt/XMClib/XMC_Peripheral_Library_v2.1.16/ThirdPartyLibraries/USBlib/USB/Class/Device/CDCClassDevice.c **** 			return Endpoint_BytesInEndpoint();
 235:/opt/XMClib/XMC_Peripheral_Library_v2.1.16/ThirdPartyLibraries/USBlib/USB/Class/Device/CDCClassDevice.c **** 		}
 236:/opt/XMClib/XMC_Peripheral_Library_v2.1.16/ThirdPartyLibraries/USBlib/USB/Class/Device/CDCClassDevice.c **** 	}
 237:/opt/XMClib/XMC_Peripheral_Library_v2.1.16/ThirdPartyLibraries/USBlib/USB/Class/Device/CDCClassDevice.c **** 	else
 238:/opt/XMClib/XMC_Peripheral_Library_v2.1.16/ThirdPartyLibraries/USBlib/USB/Class/Device/CDCClassDevice.c **** 	{
 239:/opt/XMClib/XMC_Peripheral_Library_v2.1.16/ThirdPartyLibraries/USBlib/USB/Class/Device/CDCClassDevice.c **** 		return 0;
 240:/opt/XMClib/XMC_Peripheral_Library_v2.1.16/ThirdPartyLibraries/USBlib/USB/Class/Device/CDCClassDevice.c **** 	}
 241:/opt/XMClib/XMC_Peripheral_Library_v2.1.16/ThirdPartyLibraries/USBlib/USB/Class/Device/CDCClassDevice.c **** }
 792              		.loc 1 241 1 view .LVU219
 793 005e 2046     		mov	r0, r4
 794 0060 10BD     		pop	{r4, pc}
 795              	.LVL75:
 796              	.L58:
 221:/opt/XMClib/XMC_Peripheral_Library_v2.1.16/ThirdPartyLibraries/USBlib/USB/Class/Device/CDCClassDevice.c **** 
 797              		.loc 1 221 11 view .LVU220
 798 0062 0024     		movs	r4, #0
 799 0064 FBE7     		b	.L54
 800              	.LVL76:
 801              	.L59:
 239:/opt/XMClib/XMC_Peripheral_Library_v2.1.16/ThirdPartyLibraries/USBlib/USB/Class/Device/CDCClassDevice.c **** 	}
 802              		.loc 1 239 10 view .LVU221
 803 0066 0024     		movs	r4, #0
 804 0068 F9E7     		b	.L54
 805              	.L63:
 806 006a 00BF     		.align	2
 807              	.L62:
 808 006c 00000000 		.word	USB_DeviceState
 809 0070 00000000 		.word	device
 810              		.cfi_endproc
 811              	.LFE200:
 813              		.section	.text.CDC_Device_ReceiveByte,"ax",%progbits
 814              		.align	1
 815              		.global	CDC_Device_ReceiveByte
 816              		.syntax unified
 817              		.thumb
 818              		.thumb_func
 819              		.fpu fpv4-sp-d16
 821              	CDC_Device_ReceiveByte:
 822              	.LVL77:
 823              	.LFB201:
 242:/opt/XMClib/XMC_Peripheral_Library_v2.1.16/ThirdPartyLibraries/USBlib/USB/Class/Device/CDCClassDevice.c **** 
 243:/opt/XMClib/XMC_Peripheral_Library_v2.1.16/ThirdPartyLibraries/USBlib/USB/Class/Device/CDCClassDevice.c **** int16_t CDC_Device_ReceiveByte(USB_ClassInfo_CDC_Device_t* const CDCInterfaceInfo)
 244:/opt/XMClib/XMC_Peripheral_Library_v2.1.16/ThirdPartyLibraries/USBlib/USB/Class/Device/CDCClassDevice.c **** {
 824              		.loc 1 244 1 is_stmt 1 view -0
 825              		.cfi_startproc
 826              		@ args = 0, pretend = 0, frame = 0
 827              		@ frame_needed = 0, uses_anonymous_args = 0
 828              		.loc 1 244 1 is_stmt 0 view .LVU223
 829 0000 38B5     		push	{r3, r4, r5, lr}
 830              	.LCFI11:
 831              		.cfi_def_cfa_offset 16
 832              		.cfi_offset 3, -16
 833              		.cfi_offset 4, -12
 834              		.cfi_offset 5, -8
 835              		.cfi_offset 14, -4
 245:/opt/XMClib/XMC_Peripheral_Library_v2.1.16/ThirdPartyLibraries/USBlib/USB/Class/Device/CDCClassDevice.c **** 	if ((USB_DeviceState != DEVICE_STATE_Configured) || !(CDCInterfaceInfo->State.LineEncoding.BaudRat
 836              		.loc 1 245 2 is_stmt 1 view .LVU224
 837              		.loc 1 245 23 is_stmt 0 view .LVU225
 838 0002 2C4B     		ldr	r3, .L78
 839 0004 1B78     		ldrb	r3, [r3]	@ zero_extendqisi2
 840 0006 DBB2     		uxtb	r3, r3
 841              		.loc 1 245 5 view .LVU226
 842 0008 042B     		cmp	r3, #4
 843 000a 49D1     		bne	.L71
 844              		.loc 1 245 92 discriminator 1 view .LVU227
 845 000c 8369     		ldr	r3, [r0, #24]	@ unaligned
 846              		.loc 1 245 51 discriminator 1 view .LVU228
 847 000e 002B     		cmp	r3, #0
 848 0010 49D0     		beq	.L72
 246:/opt/XMClib/XMC_Peripheral_Library_v2.1.16/ThirdPartyLibraries/USBlib/USB/Class/Device/CDCClassDevice.c **** 	  return -1;
 247:/opt/XMClib/XMC_Peripheral_Library_v2.1.16/ThirdPartyLibraries/USBlib/USB/Class/Device/CDCClassDevice.c **** 
 248:/opt/XMClib/XMC_Peripheral_Library_v2.1.16/ThirdPartyLibraries/USBlib/USB/Class/Device/CDCClassDevice.c **** 	int16_t ReceivedByte = -1;
 849              		.loc 1 248 2 is_stmt 1 view .LVU229
 850              	.LVL78:
 249:/opt/XMClib/XMC_Peripheral_Library_v2.1.16/ThirdPartyLibraries/USBlib/USB/Class/Device/CDCClassDevice.c **** 
 250:/opt/XMClib/XMC_Peripheral_Library_v2.1.16/ThirdPartyLibraries/USBlib/USB/Class/Device/CDCClassDevice.c **** 	Endpoint_SelectEndpoint(CDCInterfaceInfo->Config.DataOUTEndpoint.Address);
 851              		.loc 1 250 2 view .LVU230
 852 0012 027A     		ldrb	r2, [r0, #8]	@ zero_extendqisi2
 853              	.LVL79:
 854              	.LBB82:
 855              	.LBI82:
 129:/opt/XMClib/XMC_Peripheral_Library_v2.1.16/ThirdPartyLibraries/USBlib/USB/Class/Device/../../Core/XMC4000/../XMC4000/Endpoint_XMC4000.h **** 	{
 856              		.loc 2 129 21 view .LVU231
 857              	.LBB83:
 131:/opt/XMClib/XMC_Peripheral_Library_v2.1.16/ThirdPartyLibraries/USBlib/USB/Class/Device/../../Core/XMC4000/../XMC4000/Endpoint_XMC4000.h **** 		device.CurrentDirection = (Address & ENDPOINT_DIR_MASK);
 858              		.loc 2 131 3 view .LVU232
 131:/opt/XMClib/XMC_Peripheral_Library_v2.1.16/ThirdPartyLibraries/USBlib/USB/Class/Device/../../Core/XMC4000/../XMC4000/Endpoint_XMC4000.h **** 		device.CurrentDirection = (Address & ENDPOINT_DIR_MASK);
 859              		.loc 2 131 36 is_stmt 0 view .LVU233
 860 0014 02F00F03 		and	r3, r2, #15
 131:/opt/XMClib/XMC_Peripheral_Library_v2.1.16/ThirdPartyLibraries/USBlib/USB/Class/Device/../../Core/XMC4000/../XMC4000/Endpoint_XMC4000.h **** 		device.CurrentDirection = (Address & ENDPOINT_DIR_MASK);
 861              		.loc 2 131 26 view .LVU234
 862 0018 2749     		ldr	r1, .L78+4
 863 001a 81F83C31 		strb	r3, [r1, #316]
 132:/opt/XMClib/XMC_Peripheral_Library_v2.1.16/ThirdPartyLibraries/USBlib/USB/Class/Device/../../Core/XMC4000/../XMC4000/Endpoint_XMC4000.h **** 	}
 864              		.loc 2 132 3 is_stmt 1 view .LVU235
 132:/opt/XMClib/XMC_Peripheral_Library_v2.1.16/ThirdPartyLibraries/USBlib/USB/Class/Device/../../Core/XMC4000/../XMC4000/Endpoint_XMC4000.h **** 	}
 865              		.loc 2 132 38 is_stmt 0 view .LVU236
 866 001e 22F07F02 		bic	r2, r2, #127
 867              	.LVL80:
 132:/opt/XMClib/XMC_Peripheral_Library_v2.1.16/ThirdPartyLibraries/USBlib/USB/Class/Device/../../Core/XMC4000/../XMC4000/Endpoint_XMC4000.h **** 	}
 868              		.loc 2 132 27 view .LVU237
 869 0022 81F83D21 		strb	r2, [r1, #317]
 132:/opt/XMClib/XMC_Peripheral_Library_v2.1.16/ThirdPartyLibraries/USBlib/USB/Class/Device/../../Core/XMC4000/../XMC4000/Endpoint_XMC4000.h **** 	}
 870              		.loc 2 132 27 view .LVU238
 871              	.LBE83:
 872              	.LBE82:
 251:/opt/XMClib/XMC_Peripheral_Library_v2.1.16/ThirdPartyLibraries/USBlib/USB/Class/Device/CDCClassDevice.c **** 
 252:/opt/XMClib/XMC_Peripheral_Library_v2.1.16/ThirdPartyLibraries/USBlib/USB/Class/Device/CDCClassDevice.c **** 	if (Endpoint_IsOUTReceived())
 873              		.loc 1 252 2 is_stmt 1 view .LVU239
 874              	.LBB84:
 875              	.LBI84:
 190:/opt/XMClib/XMC_Peripheral_Library_v2.1.16/ThirdPartyLibraries/USBlib/USB/Class/Device/../../Core/XMC4000/../XMC4000/Endpoint_XMC4000.h **** 	{
 876              		.loc 2 190 21 view .LVU240
 877              	.LBB85:
 192:/opt/XMClib/XMC_Peripheral_Library_v2.1.16/ThirdPartyLibraries/USBlib/USB/Class/Device/../../Core/XMC4000/../XMC4000/Endpoint_XMC4000.h **** 		return ep->IsOutRecieved;
 878              		.loc 2 192 3 view .LVU241
 192:/opt/XMClib/XMC_Peripheral_Library_v2.1.16/ThirdPartyLibraries/USBlib/USB/Class/Device/../../Core/XMC4000/../XMC4000/Endpoint_XMC4000.h **** 		return ep->IsOutRecieved;
 879              		.loc 2 192 49 is_stmt 0 view .LVU242
 880 0026 1C46     		mov	r4, r3
 881              	.LVL81:
 193:/opt/XMClib/XMC_Peripheral_Library_v2.1.16/ThirdPartyLibraries/USBlib/USB/Class/Device/../../Core/XMC4000/../XMC4000/Endpoint_XMC4000.h **** 	}
 882              		.loc 2 193 3 is_stmt 1 view .LVU243
 193:/opt/XMClib/XMC_Peripheral_Library_v2.1.16/ThirdPartyLibraries/USBlib/USB/Class/Device/../../Core/XMC4000/../XMC4000/Endpoint_XMC4000.h **** 	}
 883              		.loc 2 193 12 is_stmt 0 view .LVU244
 884 0028 2C22     		movs	r2, #44
 885 002a 02FB0312 		mla	r2, r2, r3, r1
 886 002e 9268     		ldr	r2, [r2, #8]
 887              	.LBE85:
 888              	.LBE84:
 889              		.loc 1 252 5 view .LVU245
 890 0030 12F0200F 		tst	r2, #32
 891 0034 3AD0     		beq	.L73
 253:/opt/XMClib/XMC_Peripheral_Library_v2.1.16/ThirdPartyLibraries/USBlib/USB/Class/Device/CDCClassDevice.c **** 	{
 254:/opt/XMClib/XMC_Peripheral_Library_v2.1.16/ThirdPartyLibraries/USBlib/USB/Class/Device/CDCClassDevice.c **** 		if (Endpoint_BytesInEndpoint())
 892              		.loc 1 254 3 is_stmt 1 view .LVU246
 893              	.LBB86:
 894              	.LBI86:
 214:/opt/XMClib/XMC_Peripheral_Library_v2.1.16/ThirdPartyLibraries/USBlib/USB/Class/Device/../../Core/XMC4000/../XMC4000/Endpoint_XMC4000.h **** 	{
 895              		.loc 2 214 25 view .LVU247
 896              	.LBB87:
 216:/opt/XMClib/XMC_Peripheral_Library_v2.1.16/ThirdPartyLibraries/USBlib/USB/Class/Device/../../Core/XMC4000/../XMC4000/Endpoint_XMC4000.h **** 		if (ep->Direction)
 897              		.loc 2 216 3 view .LVU248
 898              	.LVL82:
 217:/opt/XMClib/XMC_Peripheral_Library_v2.1.16/ThirdPartyLibraries/USBlib/USB/Class/Device/../../Core/XMC4000/../XMC4000/Endpoint_XMC4000.h **** 			return ep->InBytesAvailable;
 899              		.loc 2 217 3 view .LVU249
 217:/opt/XMClib/XMC_Peripheral_Library_v2.1.16/ThirdPartyLibraries/USBlib/USB/Class/Device/../../Core/XMC4000/../XMC4000/Endpoint_XMC4000.h **** 			return ep->InBytesAvailable;
 900              		.loc 2 217 7 is_stmt 0 view .LVU250
 901 0036 2C22     		movs	r2, #44
 902 0038 02FB0312 		mla	r2, r2, r3, r1
 217:/opt/XMClib/XMC_Peripheral_Library_v2.1.16/ThirdPartyLibraries/USBlib/USB/Class/Device/../../Core/XMC4000/../XMC4000/Endpoint_XMC4000.h **** 			return ep->InBytesAvailable;
 903              		.loc 2 217 6 view .LVU251
 904 003c 92F90420 		ldrsb	r2, [r2, #4]
 905 0040 002A     		cmp	r2, #0
 906 0042 0FDB     		blt	.L76
 907              		.loc 2 220 4 is_stmt 1 view .LVU252
 908              		.loc 2 220 13 is_stmt 0 view .LVU253
 909 0044 1C4A     		ldr	r2, .L78+4
 910 0046 2C21     		movs	r1, #44
 911 0048 01FB0323 		mla	r3, r1, r3, r2
 912              	.LVL83:
 913              		.loc 2 220 13 view .LVU254
 914              	.LBE87:
 915              	.LBE86:
 916              		.loc 1 254 6 view .LVU255
 917 004c 9B89     		ldrh	r3, [r3, #12]
 918 004e B3B9     		cbnz	r3, .L67
 248:/opt/XMClib/XMC_Peripheral_Library_v2.1.16/ThirdPartyLibraries/USBlib/USB/Class/Device/CDCClassDevice.c **** 
 919              		.loc 1 248 10 view .LVU256
 920 0050 4FF0FF35 		mov	r5, #-1
 921              	.LVL84:
 922              	.L69:
 923              	.LBB89:
 924              	.LBB90:
 925              		.loc 2 220 4 is_stmt 1 view .LVU257
 926              		.loc 2 220 13 is_stmt 0 view .LVU258
 927 0054 184B     		ldr	r3, .L78+4
 928 0056 2C22     		movs	r2, #44
 929 0058 02FB0434 		mla	r4, r2, r4, r3
 930              	.LVL85:
 931              		.loc 2 220 13 view .LVU259
 932 005c A389     		ldrh	r3, [r4, #12]
 933              	.L70:
 934              		.loc 2 220 13 view .LVU260
 935              	.LBE90:
 936              	.LBE89:
 255:/opt/XMClib/XMC_Peripheral_Library_v2.1.16/ThirdPartyLibraries/USBlib/USB/Class/Device/CDCClassDevice.c **** 		  ReceivedByte = Endpoint_Read_8();
 256:/opt/XMClib/XMC_Peripheral_Library_v2.1.16/ThirdPartyLibraries/USBlib/USB/Class/Device/CDCClassDevice.c **** 
 257:/opt/XMClib/XMC_Peripheral_Library_v2.1.16/ThirdPartyLibraries/USBlib/USB/Class/Device/CDCClassDevice.c **** 		if (!(Endpoint_BytesInEndpoint()))
 937              		.loc 1 257 6 view .LVU261
 938 005e E3B1     		cbz	r3, .L77
 939              	.LVL86:
 940              	.L65:
 258:/opt/XMClib/XMC_Peripheral_Library_v2.1.16/ThirdPartyLibraries/USBlib/USB/Class/Device/CDCClassDevice.c **** 		  Endpoint_ClearOUT();
 259:/opt/XMClib/XMC_Peripheral_Library_v2.1.16/ThirdPartyLibraries/USBlib/USB/Class/Device/CDCClassDevice.c **** 	}
 260:/opt/XMClib/XMC_Peripheral_Library_v2.1.16/ThirdPartyLibraries/USBlib/USB/Class/Device/CDCClassDevice.c **** 
 261:/opt/XMClib/XMC_Peripheral_Library_v2.1.16/ThirdPartyLibraries/USBlib/USB/Class/Device/CDCClassDevice.c **** 	return ReceivedByte;
 262:/opt/XMClib/XMC_Peripheral_Library_v2.1.16/ThirdPartyLibraries/USBlib/USB/Class/Device/CDCClassDevice.c **** }
 941              		.loc 1 262 1 view .LVU262
 942 0060 2846     		mov	r0, r5
 943 0062 38BD     		pop	{r3, r4, r5, pc}
 944              	.LVL87:
 945              	.L76:
 946              	.LBB93:
 947              	.LBB88:
 218:/opt/XMClib/XMC_Peripheral_Library_v2.1.16/ThirdPartyLibraries/USBlib/USB/Class/Device/../../Core/XMC4000/../XMC4000/Endpoint_XMC4000.h **** 		else
 948              		.loc 2 218 4 is_stmt 1 view .LVU263
 218:/opt/XMClib/XMC_Peripheral_Library_v2.1.16/ThirdPartyLibraries/USBlib/USB/Class/Device/../../Core/XMC4000/../XMC4000/Endpoint_XMC4000.h **** 		else
 949              		.loc 2 218 13 is_stmt 0 view .LVU264
 950 0064 2C22     		movs	r2, #44
 951 0066 02FB0313 		mla	r3, r2, r3, r1
 952              	.LVL88:
 218:/opt/XMClib/XMC_Peripheral_Library_v2.1.16/ThirdPartyLibraries/USBlib/USB/Class/Device/../../Core/XMC4000/../XMC4000/Endpoint_XMC4000.h **** 		else
 953              		.loc 2 218 13 view .LVU265
 954              	.LBE88:
 955              	.LBE93:
 254:/opt/XMClib/XMC_Peripheral_Library_v2.1.16/ThirdPartyLibraries/USBlib/USB/Class/Device/CDCClassDevice.c **** 		  ReceivedByte = Endpoint_Read_8();
 956              		.loc 1 254 6 view .LVU266
 957 006a 9B8B     		ldrh	r3, [r3, #28]
 958 006c 3BB9     		cbnz	r3, .L67
 248:/opt/XMClib/XMC_Peripheral_Library_v2.1.16/ThirdPartyLibraries/USBlib/USB/Class/Device/CDCClassDevice.c **** 
 959              		.loc 1 248 10 view .LVU267
 960 006e 4FF0FF35 		mov	r5, #-1
 961              	.LVL89:
 962              	.L68:
 963              	.LBB94:
 964              	.LBB91:
 218:/opt/XMClib/XMC_Peripheral_Library_v2.1.16/ThirdPartyLibraries/USBlib/USB/Class/Device/../../Core/XMC4000/../XMC4000/Endpoint_XMC4000.h **** 		else
 965              		.loc 2 218 4 is_stmt 1 view .LVU268
 218:/opt/XMClib/XMC_Peripheral_Library_v2.1.16/ThirdPartyLibraries/USBlib/USB/Class/Device/../../Core/XMC4000/../XMC4000/Endpoint_XMC4000.h **** 		else
 966              		.loc 2 218 13 is_stmt 0 view .LVU269
 967 0072 114A     		ldr	r2, .L78+4
 968 0074 2C23     		movs	r3, #44
 969 0076 03FB0424 		mla	r4, r3, r4, r2
 970              	.LVL90:
 218:/opt/XMClib/XMC_Peripheral_Library_v2.1.16/ThirdPartyLibraries/USBlib/USB/Class/Device/../../Core/XMC4000/../XMC4000/Endpoint_XMC4000.h **** 		else
 971              		.loc 2 218 13 view .LVU270
 972 007a A38B     		ldrh	r3, [r4, #28]
 973 007c EFE7     		b	.L70
 974              	.LVL91:
 975              	.L67:
 218:/opt/XMClib/XMC_Peripheral_Library_v2.1.16/ThirdPartyLibraries/USBlib/USB/Class/Device/../../Core/XMC4000/../XMC4000/Endpoint_XMC4000.h **** 		else
 976              		.loc 2 218 13 view .LVU271
 977              	.LBE91:
 978              	.LBE94:
 255:/opt/XMClib/XMC_Peripheral_Library_v2.1.16/ThirdPartyLibraries/USBlib/USB/Class/Device/CDCClassDevice.c **** 
 979              		.loc 1 255 5 is_stmt 1 view .LVU272
 255:/opt/XMClib/XMC_Peripheral_Library_v2.1.16/ThirdPartyLibraries/USBlib/USB/Class/Device/CDCClassDevice.c **** 
 980              		.loc 1 255 20 is_stmt 0 view .LVU273
 981 007e FFF7FEFF 		bl	Endpoint_Read_8
 982              	.LVL92:
 255:/opt/XMClib/XMC_Peripheral_Library_v2.1.16/ThirdPartyLibraries/USBlib/USB/Class/Device/CDCClassDevice.c **** 
 983              		.loc 1 255 18 view .LVU274
 984 0082 05B2     		sxth	r5, r0
 985              	.LVL93:
 257:/opt/XMClib/XMC_Peripheral_Library_v2.1.16/ThirdPartyLibraries/USBlib/USB/Class/Device/CDCClassDevice.c **** 		  Endpoint_ClearOUT();
 986              		.loc 1 257 3 is_stmt 1 view .LVU275
 987              	.LBB95:
 988              	.LBI89:
 214:/opt/XMClib/XMC_Peripheral_Library_v2.1.16/ThirdPartyLibraries/USBlib/USB/Class/Device/../../Core/XMC4000/../XMC4000/Endpoint_XMC4000.h **** 	{
 989              		.loc 2 214 25 view .LVU276
 990              	.LBB92:
 216:/opt/XMClib/XMC_Peripheral_Library_v2.1.16/ThirdPartyLibraries/USBlib/USB/Class/Device/../../Core/XMC4000/../XMC4000/Endpoint_XMC4000.h **** 		if (ep->Direction)
 991              		.loc 2 216 3 view .LVU277
 216:/opt/XMClib/XMC_Peripheral_Library_v2.1.16/ThirdPartyLibraries/USBlib/USB/Class/Device/../../Core/XMC4000/../XMC4000/Endpoint_XMC4000.h **** 		if (ep->Direction)
 992              		.loc 2 216 49 is_stmt 0 view .LVU278
 993 0084 0C4A     		ldr	r2, .L78+4
 994 0086 92F83C41 		ldrb	r4, [r2, #316]	@ zero_extendqisi2
 995              	.LVL94:
 217:/opt/XMClib/XMC_Peripheral_Library_v2.1.16/ThirdPartyLibraries/USBlib/USB/Class/Device/../../Core/XMC4000/../XMC4000/Endpoint_XMC4000.h **** 			return ep->InBytesAvailable;
 996              		.loc 2 217 3 is_stmt 1 view .LVU279
 217:/opt/XMClib/XMC_Peripheral_Library_v2.1.16/ThirdPartyLibraries/USBlib/USB/Class/Device/../../Core/XMC4000/../XMC4000/Endpoint_XMC4000.h **** 			return ep->InBytesAvailable;
 997              		.loc 2 217 7 is_stmt 0 view .LVU280
 998 008a 2C23     		movs	r3, #44
 999 008c 03FB0423 		mla	r3, r3, r4, r2
 217:/opt/XMClib/XMC_Peripheral_Library_v2.1.16/ThirdPartyLibraries/USBlib/USB/Class/Device/../../Core/XMC4000/../XMC4000/Endpoint_XMC4000.h **** 			return ep->InBytesAvailable;
 1000              		.loc 2 217 6 view .LVU281
 1001 0090 93F90430 		ldrsb	r3, [r3, #4]
 1002 0094 002B     		cmp	r3, #0
 1003 0096 DDDA     		bge	.L69
 1004 0098 EBE7     		b	.L68
 1005              	.LVL95:
 1006              	.L77:
 217:/opt/XMClib/XMC_Peripheral_Library_v2.1.16/ThirdPartyLibraries/USBlib/USB/Class/Device/../../Core/XMC4000/../XMC4000/Endpoint_XMC4000.h **** 			return ep->InBytesAvailable;
 1007              		.loc 2 217 6 view .LVU282
 1008              	.LBE92:
 1009              	.LBE95:
 258:/opt/XMClib/XMC_Peripheral_Library_v2.1.16/ThirdPartyLibraries/USBlib/USB/Class/Device/CDCClassDevice.c **** 	}
 1010              		.loc 1 258 5 is_stmt 1 view .LVU283
 1011 009a FFF7FEFF 		bl	Endpoint_ClearOUT
 1012              	.LVL96:
 1013 009e DFE7     		b	.L65
 1014              	.LVL97:
 1015              	.L71:
 246:/opt/XMClib/XMC_Peripheral_Library_v2.1.16/ThirdPartyLibraries/USBlib/USB/Class/Device/CDCClassDevice.c **** 
 1016              		.loc 1 246 11 is_stmt 0 view .LVU284
 1017 00a0 4FF0FF35 		mov	r5, #-1
 1018 00a4 DCE7     		b	.L65
 1019              	.L72:
 1020 00a6 4FF0FF35 		mov	r5, #-1
 1021 00aa D9E7     		b	.L65
 1022              	.LVL98:
 1023              	.L73:
 248:/opt/XMClib/XMC_Peripheral_Library_v2.1.16/ThirdPartyLibraries/USBlib/USB/Class/Device/CDCClassDevice.c **** 
 1024              		.loc 1 248 10 view .LVU285
 1025 00ac 4FF0FF35 		mov	r5, #-1
 1026 00b0 D6E7     		b	.L65
 1027              	.L79:
 1028 00b2 00BF     		.align	2
 1029              	.L78:
 1030 00b4 00000000 		.word	USB_DeviceState
 1031 00b8 00000000 		.word	device
 1032              		.cfi_endproc
 1033              	.LFE201:
 1035              		.section	.text.CDC_Device_SendControlLineStateChange,"ax",%progbits
 1036              		.align	1
 1037              		.global	CDC_Device_SendControlLineStateChange
 1038              		.syntax unified
 1039              		.thumb
 1040              		.thumb_func
 1041              		.fpu fpv4-sp-d16
 1043              	CDC_Device_SendControlLineStateChange:
 1044              	.LVL99:
 1045              	.LFB202:
 263:/opt/XMClib/XMC_Peripheral_Library_v2.1.16/ThirdPartyLibraries/USBlib/USB/Class/Device/CDCClassDevice.c **** 
 264:/opt/XMClib/XMC_Peripheral_Library_v2.1.16/ThirdPartyLibraries/USBlib/USB/Class/Device/CDCClassDevice.c **** void CDC_Device_SendControlLineStateChange(USB_ClassInfo_CDC_Device_t* const CDCInterfaceInfo)
 265:/opt/XMClib/XMC_Peripheral_Library_v2.1.16/ThirdPartyLibraries/USBlib/USB/Class/Device/CDCClassDevice.c **** {
 1046              		.loc 1 265 1 is_stmt 1 view -0
 1047              		.cfi_startproc
 1048              		@ args = 0, pretend = 0, frame = 8
 1049              		@ frame_needed = 0, uses_anonymous_args = 0
 266:/opt/XMClib/XMC_Peripheral_Library_v2.1.16/ThirdPartyLibraries/USBlib/USB/Class/Device/CDCClassDevice.c **** 	if ((USB_DeviceState != DEVICE_STATE_Configured) || !(CDCInterfaceInfo->State.LineEncoding.BaudRat
 1050              		.loc 1 266 2 view .LVU287
 1051              		.loc 1 266 23 is_stmt 0 view .LVU288
 1052 0000 154B     		ldr	r3, .L89
 1053 0002 1B78     		ldrb	r3, [r3]	@ zero_extendqisi2
 1054 0004 DBB2     		uxtb	r3, r3
 1055              		.loc 1 266 5 view .LVU289
 1056 0006 042B     		cmp	r3, #4
 1057 0008 24D1     		bne	.L85
 265:/opt/XMClib/XMC_Peripheral_Library_v2.1.16/ThirdPartyLibraries/USBlib/USB/Class/Device/CDCClassDevice.c **** 	if ((USB_DeviceState != DEVICE_STATE_Configured) || !(CDCInterfaceInfo->State.LineEncoding.BaudRat
 1058              		.loc 1 265 1 discriminator 1 view .LVU290
 1059 000a 10B5     		push	{r4, lr}
 1060              	.LCFI12:
 1061              		.cfi_def_cfa_offset 8
 1062              		.cfi_offset 4, -8
 1063              		.cfi_offset 14, -4
 1064 000c 82B0     		sub	sp, sp, #8
 1065              	.LCFI13:
 1066              		.cfi_def_cfa_offset 16
 1067 000e 0446     		mov	r4, r0
 1068              		.loc 1 266 92 discriminator 1 view .LVU291
 1069 0010 8369     		ldr	r3, [r0, #24]	@ unaligned
 1070              		.loc 1 266 51 discriminator 1 view .LVU292
 1071 0012 0BB9     		cbnz	r3, .L88
 1072              	.LVL100:
 1073              	.L80:
 267:/opt/XMClib/XMC_Peripheral_Library_v2.1.16/ThirdPartyLibraries/USBlib/USB/Class/Device/CDCClassDevice.c **** 	  return;
 268:/opt/XMClib/XMC_Peripheral_Library_v2.1.16/ThirdPartyLibraries/USBlib/USB/Class/Device/CDCClassDevice.c **** 
 269:/opt/XMClib/XMC_Peripheral_Library_v2.1.16/ThirdPartyLibraries/USBlib/USB/Class/Device/CDCClassDevice.c **** 	Endpoint_SelectEndpoint(CDCInterfaceInfo->Config.NotificationEndpoint.Address);
 270:/opt/XMClib/XMC_Peripheral_Library_v2.1.16/ThirdPartyLibraries/USBlib/USB/Class/Device/CDCClassDevice.c **** 
 271:/opt/XMClib/XMC_Peripheral_Library_v2.1.16/ThirdPartyLibraries/USBlib/USB/Class/Device/CDCClassDevice.c **** 	USB_Request_Header_t Notification = (USB_Request_Header_t)
 272:/opt/XMClib/XMC_Peripheral_Library_v2.1.16/ThirdPartyLibraries/USBlib/USB/Class/Device/CDCClassDevice.c **** 		{
 273:/opt/XMClib/XMC_Peripheral_Library_v2.1.16/ThirdPartyLibraries/USBlib/USB/Class/Device/CDCClassDevice.c **** 			.bmRequestType = (REQDIR_DEVICETOHOST | REQTYPE_CLASS | REQREC_INTERFACE),
 274:/opt/XMClib/XMC_Peripheral_Library_v2.1.16/ThirdPartyLibraries/USBlib/USB/Class/Device/CDCClassDevice.c **** 			.bRequest      = CDC_NOTIF_SerialState,
 275:/opt/XMClib/XMC_Peripheral_Library_v2.1.16/ThirdPartyLibraries/USBlib/USB/Class/Device/CDCClassDevice.c **** 			.wValue        = CPU_TO_LE16(0),
 276:/opt/XMClib/XMC_Peripheral_Library_v2.1.16/ThirdPartyLibraries/USBlib/USB/Class/Device/CDCClassDevice.c **** 			.wIndex        = CPU_TO_LE16(0),
 277:/opt/XMClib/XMC_Peripheral_Library_v2.1.16/ThirdPartyLibraries/USBlib/USB/Class/Device/CDCClassDevice.c **** 			.wLength       = CPU_TO_LE16(sizeof(CDCInterfaceInfo->State.ControlLineStates.DeviceToHost)),
 278:/opt/XMClib/XMC_Peripheral_Library_v2.1.16/ThirdPartyLibraries/USBlib/USB/Class/Device/CDCClassDevice.c **** 		};
 279:/opt/XMClib/XMC_Peripheral_Library_v2.1.16/ThirdPartyLibraries/USBlib/USB/Class/Device/CDCClassDevice.c **** 
 280:/opt/XMClib/XMC_Peripheral_Library_v2.1.16/ThirdPartyLibraries/USBlib/USB/Class/Device/CDCClassDevice.c **** 	Endpoint_Write_Stream_LE(&Notification, sizeof(USB_Request_Header_t), NULL);
 281:/opt/XMClib/XMC_Peripheral_Library_v2.1.16/ThirdPartyLibraries/USBlib/USB/Class/Device/CDCClassDevice.c **** 	Endpoint_Write_Stream_LE(&CDCInterfaceInfo->State.ControlLineStates.DeviceToHost,
 282:/opt/XMClib/XMC_Peripheral_Library_v2.1.16/ThirdPartyLibraries/USBlib/USB/Class/Device/CDCClassDevice.c **** 	                         sizeof(CDCInterfaceInfo->State.ControlLineStates.DeviceToHost),
 283:/opt/XMClib/XMC_Peripheral_Library_v2.1.16/ThirdPartyLibraries/USBlib/USB/Class/Device/CDCClassDevice.c **** 	                         NULL);
 284:/opt/XMClib/XMC_Peripheral_Library_v2.1.16/ThirdPartyLibraries/USBlib/USB/Class/Device/CDCClassDevice.c **** 	Endpoint_ClearIN();
 285:/opt/XMClib/XMC_Peripheral_Library_v2.1.16/ThirdPartyLibraries/USBlib/USB/Class/Device/CDCClassDevice.c **** }
 1074              		.loc 1 285 1 view .LVU293
 1075 0014 02B0     		add	sp, sp, #8
 1076              	.LCFI14:
 1077              		.cfi_remember_state
 1078              		.cfi_def_cfa_offset 8
 1079              		@ sp needed
 1080 0016 10BD     		pop	{r4, pc}
 1081              	.LVL101:
 1082              	.L88:
 1083              	.LCFI15:
 1084              		.cfi_restore_state
 269:/opt/XMClib/XMC_Peripheral_Library_v2.1.16/ThirdPartyLibraries/USBlib/USB/Class/Device/CDCClassDevice.c **** 
 1085              		.loc 1 269 2 is_stmt 1 view .LVU294
 1086 0018 837B     		ldrb	r3, [r0, #14]	@ zero_extendqisi2
 1087              	.LVL102:
 1088              	.LBB96:
 1089              	.LBI96:
 129:/opt/XMClib/XMC_Peripheral_Library_v2.1.16/ThirdPartyLibraries/USBlib/USB/Class/Device/../../Core/XMC4000/../XMC4000/Endpoint_XMC4000.h **** 	{
 1090              		.loc 2 129 21 view .LVU295
 1091              	.LBB97:
 131:/opt/XMClib/XMC_Peripheral_Library_v2.1.16/ThirdPartyLibraries/USBlib/USB/Class/Device/../../Core/XMC4000/../XMC4000/Endpoint_XMC4000.h **** 		device.CurrentDirection = (Address & ENDPOINT_DIR_MASK);
 1092              		.loc 2 131 3 view .LVU296
 131:/opt/XMClib/XMC_Peripheral_Library_v2.1.16/ThirdPartyLibraries/USBlib/USB/Class/Device/../../Core/XMC4000/../XMC4000/Endpoint_XMC4000.h **** 		device.CurrentDirection = (Address & ENDPOINT_DIR_MASK);
 1093              		.loc 2 131 26 is_stmt 0 view .LVU297
 1094 001a 104A     		ldr	r2, .L89+4
 131:/opt/XMClib/XMC_Peripheral_Library_v2.1.16/ThirdPartyLibraries/USBlib/USB/Class/Device/../../Core/XMC4000/../XMC4000/Endpoint_XMC4000.h **** 		device.CurrentDirection = (Address & ENDPOINT_DIR_MASK);
 1095              		.loc 2 131 36 view .LVU298
 1096 001c 03F00F01 		and	r1, r3, #15
 131:/opt/XMClib/XMC_Peripheral_Library_v2.1.16/ThirdPartyLibraries/USBlib/USB/Class/Device/../../Core/XMC4000/../XMC4000/Endpoint_XMC4000.h **** 		device.CurrentDirection = (Address & ENDPOINT_DIR_MASK);
 1097              		.loc 2 131 26 view .LVU299
 1098 0020 82F83C11 		strb	r1, [r2, #316]
 132:/opt/XMClib/XMC_Peripheral_Library_v2.1.16/ThirdPartyLibraries/USBlib/USB/Class/Device/../../Core/XMC4000/../XMC4000/Endpoint_XMC4000.h **** 	}
 1099              		.loc 2 132 3 is_stmt 1 view .LVU300
 132:/opt/XMClib/XMC_Peripheral_Library_v2.1.16/ThirdPartyLibraries/USBlib/USB/Class/Device/../../Core/XMC4000/../XMC4000/Endpoint_XMC4000.h **** 	}
 1100              		.loc 2 132 38 is_stmt 0 view .LVU301
 1101 0024 23F07F03 		bic	r3, r3, #127
 1102              	.LVL103:
 132:/opt/XMClib/XMC_Peripheral_Library_v2.1.16/ThirdPartyLibraries/USBlib/USB/Class/Device/../../Core/XMC4000/../XMC4000/Endpoint_XMC4000.h **** 	}
 1103              		.loc 2 132 27 view .LVU302
 1104 0028 82F83D31 		strb	r3, [r2, #317]
 132:/opt/XMClib/XMC_Peripheral_Library_v2.1.16/ThirdPartyLibraries/USBlib/USB/Class/Device/../../Core/XMC4000/../XMC4000/Endpoint_XMC4000.h **** 	}
 1105              		.loc 2 132 27 view .LVU303
 1106              	.LBE97:
 1107              	.LBE96:
 271:/opt/XMClib/XMC_Peripheral_Library_v2.1.16/ThirdPartyLibraries/USBlib/USB/Class/Device/CDCClassDevice.c **** 		{
 1108              		.loc 1 271 2 is_stmt 1 view .LVU304
 271:/opt/XMClib/XMC_Peripheral_Library_v2.1.16/ThirdPartyLibraries/USBlib/USB/Class/Device/CDCClassDevice.c **** 		{
 1109              		.loc 1 271 23 is_stmt 0 view .LVU305
 1110 002c 0C4A     		ldr	r2, .L89+8
 1111 002e 6B46     		mov	r3, sp
 1112 0030 92E80300 		ldm	r2, {r0, r1}
 1113              	.LVL104:
 271:/opt/XMClib/XMC_Peripheral_Library_v2.1.16/ThirdPartyLibraries/USBlib/USB/Class/Device/CDCClassDevice.c **** 		{
 1114              		.loc 1 271 23 view .LVU306
 1115 0034 83E80300 		stm	r3, {r0, r1}
 280:/opt/XMClib/XMC_Peripheral_Library_v2.1.16/ThirdPartyLibraries/USBlib/USB/Class/Device/CDCClassDevice.c **** 	Endpoint_Write_Stream_LE(&CDCInterfaceInfo->State.ControlLineStates.DeviceToHost,
 1116              		.loc 1 280 2 is_stmt 1 view .LVU307
 1117 0038 0022     		movs	r2, #0
 1118 003a 0821     		movs	r1, #8
 1119 003c 1846     		mov	r0, r3
 1120 003e FFF7FEFF 		bl	Endpoint_Write_Stream_LE
 1121              	.LVL105:
 281:/opt/XMClib/XMC_Peripheral_Library_v2.1.16/ThirdPartyLibraries/USBlib/USB/Class/Device/CDCClassDevice.c **** 	                         sizeof(CDCInterfaceInfo->State.ControlLineStates.DeviceToHost),
 1122              		.loc 1 281 2 view .LVU308
 1123 0042 0022     		movs	r2, #0
 1124 0044 0221     		movs	r1, #2
 1125 0046 04F11600 		add	r0, r4, #22
 1126 004a FFF7FEFF 		bl	Endpoint_Write_Stream_LE
 1127              	.LVL106:
 284:/opt/XMClib/XMC_Peripheral_Library_v2.1.16/ThirdPartyLibraries/USBlib/USB/Class/Device/CDCClassDevice.c **** }
 1128              		.loc 1 284 2 view .LVU309
 1129 004e FFF7FEFF 		bl	Endpoint_ClearIN
 1130              	.LVL107:
 1131 0052 DFE7     		b	.L80
 1132              	.LVL108:
 1133              	.L85:
 1134              	.LCFI16:
 1135              		.cfi_def_cfa_offset 0
 1136              		.cfi_restore 4
 1137              		.cfi_restore 14
 284:/opt/XMClib/XMC_Peripheral_Library_v2.1.16/ThirdPartyLibraries/USBlib/USB/Class/Device/CDCClassDevice.c **** }
 1138              		.loc 1 284 2 is_stmt 0 view .LVU310
 1139 0054 7047     		bx	lr
 1140              	.L90:
 1141 0056 00BF     		.align	2
 1142              	.L89:
 1143 0058 00000000 		.word	USB_DeviceState
 1144 005c 00000000 		.word	device
 1145 0060 00000000 		.word	.LANCHOR0
 1146              		.cfi_endproc
 1147              	.LFE202:
 1149              		.section	.text.EVENT_CDC_Device_LineEncodingChanged,"ax",%progbits
 1150              		.align	1
 1151              		.weak	EVENT_CDC_Device_LineEncodingChanged
 1152              		.syntax unified
 1153              		.thumb
 1154              		.thumb_func
 1155              		.fpu fpv4-sp-d16
 1157              	EVENT_CDC_Device_LineEncodingChanged:
 1158              	.LVL109:
 1159              	.LFB203:
 286:/opt/XMClib/XMC_Peripheral_Library_v2.1.16/ThirdPartyLibraries/USBlib/USB/Class/Device/CDCClassDevice.c **** 
 287:/opt/XMClib/XMC_Peripheral_Library_v2.1.16/ThirdPartyLibraries/USBlib/USB/Class/Device/CDCClassDevice.c **** #if defined(FDEV_SETUP_STREAM)
 288:/opt/XMClib/XMC_Peripheral_Library_v2.1.16/ThirdPartyLibraries/USBlib/USB/Class/Device/CDCClassDevice.c **** void CDC_Device_CreateStream(USB_ClassInfo_CDC_Device_t* const CDCInterfaceInfo,
 289:/opt/XMClib/XMC_Peripheral_Library_v2.1.16/ThirdPartyLibraries/USBlib/USB/Class/Device/CDCClassDevice.c ****                              FILE* const Stream)
 290:/opt/XMClib/XMC_Peripheral_Library_v2.1.16/ThirdPartyLibraries/USBlib/USB/Class/Device/CDCClassDevice.c **** {
 291:/opt/XMClib/XMC_Peripheral_Library_v2.1.16/ThirdPartyLibraries/USBlib/USB/Class/Device/CDCClassDevice.c **** 	*Stream = (FILE)FDEV_SETUP_STREAM(CDC_Device_putchar, CDC_Device_getchar, _FDEV_SETUP_RW);
 292:/opt/XMClib/XMC_Peripheral_Library_v2.1.16/ThirdPartyLibraries/USBlib/USB/Class/Device/CDCClassDevice.c **** 	fdev_set_udata(Stream, CDCInterfaceInfo);
 293:/opt/XMClib/XMC_Peripheral_Library_v2.1.16/ThirdPartyLibraries/USBlib/USB/Class/Device/CDCClassDevice.c **** }
 294:/opt/XMClib/XMC_Peripheral_Library_v2.1.16/ThirdPartyLibraries/USBlib/USB/Class/Device/CDCClassDevice.c **** 
 295:/opt/XMClib/XMC_Peripheral_Library_v2.1.16/ThirdPartyLibraries/USBlib/USB/Class/Device/CDCClassDevice.c **** void CDC_Device_CreateBlockingStream(USB_ClassInfo_CDC_Device_t* const CDCInterfaceInfo,
 296:/opt/XMClib/XMC_Peripheral_Library_v2.1.16/ThirdPartyLibraries/USBlib/USB/Class/Device/CDCClassDevice.c ****                                      FILE* const Stream)
 297:/opt/XMClib/XMC_Peripheral_Library_v2.1.16/ThirdPartyLibraries/USBlib/USB/Class/Device/CDCClassDevice.c **** {
 298:/opt/XMClib/XMC_Peripheral_Library_v2.1.16/ThirdPartyLibraries/USBlib/USB/Class/Device/CDCClassDevice.c **** 	*Stream = (FILE)FDEV_SETUP_STREAM(CDC_Device_putchar, CDC_Device_getchar_Blocking, _FDEV_SETUP_RW)
 299:/opt/XMClib/XMC_Peripheral_Library_v2.1.16/ThirdPartyLibraries/USBlib/USB/Class/Device/CDCClassDevice.c **** 	fdev_set_udata(Stream, CDCInterfaceInfo);
 300:/opt/XMClib/XMC_Peripheral_Library_v2.1.16/ThirdPartyLibraries/USBlib/USB/Class/Device/CDCClassDevice.c **** }
 301:/opt/XMClib/XMC_Peripheral_Library_v2.1.16/ThirdPartyLibraries/USBlib/USB/Class/Device/CDCClassDevice.c **** 
 302:/opt/XMClib/XMC_Peripheral_Library_v2.1.16/ThirdPartyLibraries/USBlib/USB/Class/Device/CDCClassDevice.c **** static int CDC_Device_putchar(char c,
 303:/opt/XMClib/XMC_Peripheral_Library_v2.1.16/ThirdPartyLibraries/USBlib/USB/Class/Device/CDCClassDevice.c ****                               FILE* Stream)
 304:/opt/XMClib/XMC_Peripheral_Library_v2.1.16/ThirdPartyLibraries/USBlib/USB/Class/Device/CDCClassDevice.c **** {
 305:/opt/XMClib/XMC_Peripheral_Library_v2.1.16/ThirdPartyLibraries/USBlib/USB/Class/Device/CDCClassDevice.c **** 	return CDC_Device_SendByte((USB_ClassInfo_CDC_Device_t*)fdev_get_udata(Stream), c) ? _FDEV_ERR : 0
 306:/opt/XMClib/XMC_Peripheral_Library_v2.1.16/ThirdPartyLibraries/USBlib/USB/Class/Device/CDCClassDevice.c **** }
 307:/opt/XMClib/XMC_Peripheral_Library_v2.1.16/ThirdPartyLibraries/USBlib/USB/Class/Device/CDCClassDevice.c **** 
 308:/opt/XMClib/XMC_Peripheral_Library_v2.1.16/ThirdPartyLibraries/USBlib/USB/Class/Device/CDCClassDevice.c **** static int CDC_Device_getchar(FILE* Stream)
 309:/opt/XMClib/XMC_Peripheral_Library_v2.1.16/ThirdPartyLibraries/USBlib/USB/Class/Device/CDCClassDevice.c **** {
 310:/opt/XMClib/XMC_Peripheral_Library_v2.1.16/ThirdPartyLibraries/USBlib/USB/Class/Device/CDCClassDevice.c **** 	int16_t ReceivedByte = CDC_Device_ReceiveByte((USB_ClassInfo_CDC_Device_t*)fdev_get_udata(Stream))
 311:/opt/XMClib/XMC_Peripheral_Library_v2.1.16/ThirdPartyLibraries/USBlib/USB/Class/Device/CDCClassDevice.c **** 
 312:/opt/XMClib/XMC_Peripheral_Library_v2.1.16/ThirdPartyLibraries/USBlib/USB/Class/Device/CDCClassDevice.c **** 	if (ReceivedByte < 0)
 313:/opt/XMClib/XMC_Peripheral_Library_v2.1.16/ThirdPartyLibraries/USBlib/USB/Class/Device/CDCClassDevice.c **** 	  return _FDEV_EOF;
 314:/opt/XMClib/XMC_Peripheral_Library_v2.1.16/ThirdPartyLibraries/USBlib/USB/Class/Device/CDCClassDevice.c **** 
 315:/opt/XMClib/XMC_Peripheral_Library_v2.1.16/ThirdPartyLibraries/USBlib/USB/Class/Device/CDCClassDevice.c **** 	return ReceivedByte;
 316:/opt/XMClib/XMC_Peripheral_Library_v2.1.16/ThirdPartyLibraries/USBlib/USB/Class/Device/CDCClassDevice.c **** }
 317:/opt/XMClib/XMC_Peripheral_Library_v2.1.16/ThirdPartyLibraries/USBlib/USB/Class/Device/CDCClassDevice.c **** 
 318:/opt/XMClib/XMC_Peripheral_Library_v2.1.16/ThirdPartyLibraries/USBlib/USB/Class/Device/CDCClassDevice.c **** static int CDC_Device_getchar_Blocking(FILE* Stream)
 319:/opt/XMClib/XMC_Peripheral_Library_v2.1.16/ThirdPartyLibraries/USBlib/USB/Class/Device/CDCClassDevice.c **** {
 320:/opt/XMClib/XMC_Peripheral_Library_v2.1.16/ThirdPartyLibraries/USBlib/USB/Class/Device/CDCClassDevice.c **** 	int16_t ReceivedByte;
 321:/opt/XMClib/XMC_Peripheral_Library_v2.1.16/ThirdPartyLibraries/USBlib/USB/Class/Device/CDCClassDevice.c **** 
 322:/opt/XMClib/XMC_Peripheral_Library_v2.1.16/ThirdPartyLibraries/USBlib/USB/Class/Device/CDCClassDevice.c **** 	while ((ReceivedByte = CDC_Device_ReceiveByte((USB_ClassInfo_CDC_Device_t*)fdev_get_udata(Stream))
 323:/opt/XMClib/XMC_Peripheral_Library_v2.1.16/ThirdPartyLibraries/USBlib/USB/Class/Device/CDCClassDevice.c **** 	{
 324:/opt/XMClib/XMC_Peripheral_Library_v2.1.16/ThirdPartyLibraries/USBlib/USB/Class/Device/CDCClassDevice.c **** 		if (USB_DeviceState == DEVICE_STATE_Unattached)
 325:/opt/XMClib/XMC_Peripheral_Library_v2.1.16/ThirdPartyLibraries/USBlib/USB/Class/Device/CDCClassDevice.c **** 		  return _FDEV_EOF;
 326:/opt/XMClib/XMC_Peripheral_Library_v2.1.16/ThirdPartyLibraries/USBlib/USB/Class/Device/CDCClassDevice.c **** 
 327:/opt/XMClib/XMC_Peripheral_Library_v2.1.16/ThirdPartyLibraries/USBlib/USB/Class/Device/CDCClassDevice.c **** 		CDC_Device_USBTask((USB_ClassInfo_CDC_Device_t*)fdev_get_udata(Stream));
 328:/opt/XMClib/XMC_Peripheral_Library_v2.1.16/ThirdPartyLibraries/USBlib/USB/Class/Device/CDCClassDevice.c **** 		USB_USBTask();
 329:/opt/XMClib/XMC_Peripheral_Library_v2.1.16/ThirdPartyLibraries/USBlib/USB/Class/Device/CDCClassDevice.c **** 	}
 330:/opt/XMClib/XMC_Peripheral_Library_v2.1.16/ThirdPartyLibraries/USBlib/USB/Class/Device/CDCClassDevice.c **** 
 331:/opt/XMClib/XMC_Peripheral_Library_v2.1.16/ThirdPartyLibraries/USBlib/USB/Class/Device/CDCClassDevice.c **** 	return ReceivedByte;
 332:/opt/XMClib/XMC_Peripheral_Library_v2.1.16/ThirdPartyLibraries/USBlib/USB/Class/Device/CDCClassDevice.c **** }
 333:/opt/XMClib/XMC_Peripheral_Library_v2.1.16/ThirdPartyLibraries/USBlib/USB/Class/Device/CDCClassDevice.c **** #endif
 334:/opt/XMClib/XMC_Peripheral_Library_v2.1.16/ThirdPartyLibraries/USBlib/USB/Class/Device/CDCClassDevice.c **** 
 335:/opt/XMClib/XMC_Peripheral_Library_v2.1.16/ThirdPartyLibraries/USBlib/USB/Class/Device/CDCClassDevice.c **** __WEAK void EVENT_CDC_Device_LineEncodingChanged(USB_ClassInfo_CDC_Device_t* const CDCInterfaceInfo
 336:/opt/XMClib/XMC_Peripheral_Library_v2.1.16/ThirdPartyLibraries/USBlib/USB/Class/Device/CDCClassDevice.c **** {
 1160              		.loc 1 336 1 is_stmt 1 view -0
 1161              		.cfi_startproc
 1162              		@ args = 0, pretend = 0, frame = 0
 1163              		@ frame_needed = 0, uses_anonymous_args = 0
 1164              		@ link register save eliminated.
 337:/opt/XMClib/XMC_Peripheral_Library_v2.1.16/ThirdPartyLibraries/USBlib/USB/Class/Device/CDCClassDevice.c **** }
 1165              		.loc 1 337 1 view .LVU312
 1166 0000 7047     		bx	lr
 1167              		.cfi_endproc
 1168              	.LFE203:
 1170              		.section	.text.EVENT_CDC_Device_ControLineStateChanged,"ax",%progbits
 1171              		.align	1
 1172              		.weak	EVENT_CDC_Device_ControLineStateChanged
 1173              		.syntax unified
 1174              		.thumb
 1175              		.thumb_func
 1176              		.fpu fpv4-sp-d16
 1178              	EVENT_CDC_Device_ControLineStateChanged:
 1179              	.LVL110:
 1180              	.LFB204:
 338:/opt/XMClib/XMC_Peripheral_Library_v2.1.16/ThirdPartyLibraries/USBlib/USB/Class/Device/CDCClassDevice.c **** 
 339:/opt/XMClib/XMC_Peripheral_Library_v2.1.16/ThirdPartyLibraries/USBlib/USB/Class/Device/CDCClassDevice.c **** __WEAK void EVENT_CDC_Device_ControLineStateChanged(USB_ClassInfo_CDC_Device_t* const CDCInterfaceI
 340:/opt/XMClib/XMC_Peripheral_Library_v2.1.16/ThirdPartyLibraries/USBlib/USB/Class/Device/CDCClassDevice.c **** {
 1181              		.loc 1 340 1 view -0
 1182              		.cfi_startproc
 1183              		@ args = 0, pretend = 0, frame = 0
 1184              		@ frame_needed = 0, uses_anonymous_args = 0
 1185              		@ link register save eliminated.
 341:/opt/XMClib/XMC_Peripheral_Library_v2.1.16/ThirdPartyLibraries/USBlib/USB/Class/Device/CDCClassDevice.c **** }
 1186              		.loc 1 341 1 view .LVU314
 1187 0000 7047     		bx	lr
 1188              		.cfi_endproc
 1189              	.LFE204:
 1191              		.section	.text.EVENT_CDC_Device_BreakSent,"ax",%progbits
 1192              		.align	1
 1193              		.weak	EVENT_CDC_Device_BreakSent
 1194              		.syntax unified
 1195              		.thumb
 1196              		.thumb_func
 1197              		.fpu fpv4-sp-d16
 1199              	EVENT_CDC_Device_BreakSent:
 1200              	.LVL111:
 1201              	.LFB205:
 342:/opt/XMClib/XMC_Peripheral_Library_v2.1.16/ThirdPartyLibraries/USBlib/USB/Class/Device/CDCClassDevice.c **** 
 343:/opt/XMClib/XMC_Peripheral_Library_v2.1.16/ThirdPartyLibraries/USBlib/USB/Class/Device/CDCClassDevice.c **** __WEAK void EVENT_CDC_Device_BreakSent(USB_ClassInfo_CDC_Device_t* const CDCInterfaceInfo,
 344:/opt/XMClib/XMC_Peripheral_Library_v2.1.16/ThirdPartyLibraries/USBlib/USB/Class/Device/CDCClassDevice.c **** 				                               const uint8_t Duration)
 345:/opt/XMClib/XMC_Peripheral_Library_v2.1.16/ThirdPartyLibraries/USBlib/USB/Class/Device/CDCClassDevice.c **** {
 1202              		.loc 1 345 1 view -0
 1203              		.cfi_startproc
 1204              		@ args = 0, pretend = 0, frame = 0
 1205              		@ frame_needed = 0, uses_anonymous_args = 0
 1206              		@ link register save eliminated.
 346:/opt/XMClib/XMC_Peripheral_Library_v2.1.16/ThirdPartyLibraries/USBlib/USB/Class/Device/CDCClassDevice.c **** }
 1207              		.loc 1 346 1 view .LVU316
 1208 0000 7047     		bx	lr
 1209              		.cfi_endproc
 1210              	.LFE205:
 1212              		.section	.text.CDC_Device_ProcessControlRequest,"ax",%progbits
 1213              		.align	1
 1214              		.global	CDC_Device_ProcessControlRequest
 1215              		.syntax unified
 1216              		.thumb
 1217              		.thumb_func
 1218              		.fpu fpv4-sp-d16
 1220              	CDC_Device_ProcessControlRequest:
 1221              	.LVL112:
 1222              	.LFB193:
  41:/opt/XMClib/XMC_Peripheral_Library_v2.1.16/ThirdPartyLibraries/USBlib/USB/Class/Device/CDCClassDevice.c **** 	if (!(Endpoint_IsSETUPReceived()))
 1223              		.loc 1 41 1 view -0
 1224              		.cfi_startproc
 1225              		@ args = 0, pretend = 0, frame = 0
 1226              		@ frame_needed = 0, uses_anonymous_args = 0
  42:/opt/XMClib/XMC_Peripheral_Library_v2.1.16/ThirdPartyLibraries/USBlib/USB/Class/Device/CDCClassDevice.c **** 	  return;
 1227              		.loc 1 42 2 view .LVU318
 1228              	.LBB98:
 1229              	.LBI98:
 142:/opt/XMClib/XMC_Peripheral_Library_v2.1.16/ThirdPartyLibraries/USBlib/USB/Class/Device/../../Core/XMC4000/../XMC4000/Endpoint_XMC4000.h **** 	{
 1230              		.loc 2 142 21 view .LVU319
 1231              	.LBB99:
 144:/opt/XMClib/XMC_Peripheral_Library_v2.1.16/ThirdPartyLibraries/USBlib/USB/Class/Device/../../Core/XMC4000/../XMC4000/Endpoint_XMC4000.h **** 	}
 1232              		.loc 2 144 3 view .LVU320
 144:/opt/XMClib/XMC_Peripheral_Library_v2.1.16/ThirdPartyLibraries/USBlib/USB/Class/Device/../../Core/XMC4000/../XMC4000/Endpoint_XMC4000.h **** 	}
 1233              		.loc 2 144 16 is_stmt 0 view .LVU321
 1234 0000 484B     		ldr	r3, .L113
 1235 0002 93F83E31 		ldrb	r3, [r3, #318]	@ zero_extendqisi2
 1236              	.LBE99:
 1237              	.LBE98:
  42:/opt/XMClib/XMC_Peripheral_Library_v2.1.16/ThirdPartyLibraries/USBlib/USB/Class/Device/CDCClassDevice.c **** 	  return;
 1238              		.loc 1 42 5 view .LVU322
 1239 0006 13F0020F 		tst	r3, #2
 1240 000a 00F08A80 		beq	.L108
  41:/opt/XMClib/XMC_Peripheral_Library_v2.1.16/ThirdPartyLibraries/USBlib/USB/Class/Device/CDCClassDevice.c **** 	if (!(Endpoint_IsSETUPReceived()))
 1241              		.loc 1 41 1 view .LVU323
 1242 000e 10B5     		push	{r4, lr}
 1243              	.LCFI17:
 1244              		.cfi_def_cfa_offset 8
 1245              		.cfi_offset 4, -8
 1246              		.cfi_offset 14, -4
 1247 0010 0446     		mov	r4, r0
  45:/opt/XMClib/XMC_Peripheral_Library_v2.1.16/ThirdPartyLibraries/USBlib/USB/Class/Device/CDCClassDevice.c **** 	  return;
 1248              		.loc 1 45 2 is_stmt 1 view .LVU324
  45:/opt/XMClib/XMC_Peripheral_Library_v2.1.16/ThirdPartyLibraries/USBlib/USB/Class/Device/CDCClassDevice.c **** 	  return;
 1249              		.loc 1 45 5 is_stmt 0 view .LVU325
 1250 0012 454B     		ldr	r3, .L113+4
 1251 0014 9A88     		ldrh	r2, [r3, #4]	@ unaligned
 1252 0016 0378     		ldrb	r3, [r0]	@ zero_extendqisi2
 1253 0018 9A42     		cmp	r2, r3
 1254 001a 60D1     		bne	.L94
  48:/opt/XMClib/XMC_Peripheral_Library_v2.1.16/ThirdPartyLibraries/USBlib/USB/Class/Device/CDCClassDevice.c **** 	{
 1255              		.loc 1 48 2 is_stmt 1 view .LVU326
  48:/opt/XMClib/XMC_Peripheral_Library_v2.1.16/ThirdPartyLibraries/USBlib/USB/Class/Device/CDCClassDevice.c **** 	{
 1256              		.loc 1 48 28 is_stmt 0 view .LVU327
 1257 001c 424B     		ldr	r3, .L113+4
 1258 001e 5B78     		ldrb	r3, [r3, #1]	@ zero_extendqisi2
 1259 0020 203B     		subs	r3, r3, #32
 1260 0022 032B     		cmp	r3, #3
 1261 0024 5BD8     		bhi	.L94
 1262 0026 DFE803F0 		tbb	[pc, r3]
 1263              	.L97:
 1264 002a 2A       		.byte	(.L100-.L97)/2
 1265 002b 02       		.byte	(.L99-.L97)/2
 1266 002c 56       		.byte	(.L98-.L97)/2
 1267 002d 6B       		.byte	(.L96-.L97)/2
 1268              		.p2align 1
 1269              	.L99:
  51:/opt/XMClib/XMC_Peripheral_Library_v2.1.16/ThirdPartyLibraries/USBlib/USB/Class/Device/CDCClassDevice.c **** 			{
 1270              		.loc 1 51 4 is_stmt 1 view .LVU328
  51:/opt/XMClib/XMC_Peripheral_Library_v2.1.16/ThirdPartyLibraries/USBlib/USB/Class/Device/CDCClassDevice.c **** 			{
 1271              		.loc 1 51 26 is_stmt 0 view .LVU329
 1272 002e 3E4B     		ldr	r3, .L113+4
  51:/opt/XMClib/XMC_Peripheral_Library_v2.1.16/ThirdPartyLibraries/USBlib/USB/Class/Device/CDCClassDevice.c **** 			{
 1273              		.loc 1 51 7 view .LVU330
 1274 0030 1B78     		ldrb	r3, [r3]	@ zero_extendqisi2
 1275 0032 A12B     		cmp	r3, #161
 1276 0034 53D1     		bne	.L94
  53:/opt/XMClib/XMC_Peripheral_Library_v2.1.16/ThirdPartyLibraries/USBlib/USB/Class/Device/CDCClassDevice.c **** 
 1277              		.loc 1 53 5 is_stmt 1 view .LVU331
 1278              	.LBB100:
 1279              	.LBI100:
 156:/opt/XMClib/XMC_Peripheral_Library_v2.1.16/ThirdPartyLibraries/USBlib/USB/Class/Device/../../Core/XMC4000/../XMC4000/Endpoint_XMC4000.h **** 	{
 1280              		.loc 2 156 21 view .LVU332
 1281              	.LBB101:
 158:/opt/XMClib/XMC_Peripheral_Library_v2.1.16/ThirdPartyLibraries/USBlib/USB/Class/Device/../../Core/XMC4000/../XMC4000/Endpoint_XMC4000.h **** 	}
 1282              		.loc 2 158 3 view .LVU333
 158:/opt/XMClib/XMC_Peripheral_Library_v2.1.16/ThirdPartyLibraries/USBlib/USB/Class/Device/../../Core/XMC4000/../XMC4000/Endpoint_XMC4000.h **** 	}
 1283              		.loc 2 158 26 is_stmt 0 view .LVU334
 1284 0036 3B4A     		ldr	r2, .L113
 1285 0038 92F83E31 		ldrb	r3, [r2, #318]	@ zero_extendqisi2
 1286 003c 6FF34103 		bfc	r3, #1, #1
 1287 0040 82F83E31 		strb	r3, [r2, #318]
 1288              	.LBE101:
 1289              	.LBE100:
 1290              	.LBB102:
 1291              	.LBB103:
 179:/opt/XMClib/XMC_Peripheral_Library_v2.1.16/ThirdPartyLibraries/USBlib/USB/Class/Device/../../Core/XMC4000/../XMC4000/Endpoint_XMC4000.h **** 		return ep->InInUse == 0 && ep->IsEnabled;
 1292              		.loc 2 179 49 view .LVU335
 1293 0044 92F83C21 		ldrb	r2, [r2, #316]	@ zero_extendqisi2
 180:/opt/XMClib/XMC_Peripheral_Library_v2.1.16/ThirdPartyLibraries/USBlib/USB/Class/Device/../../Core/XMC4000/../XMC4000/Endpoint_XMC4000.h **** 	}
 1294              		.loc 2 180 12 view .LVU336
 1295 0048 364B     		ldr	r3, .L113
 1296 004a 2C21     		movs	r1, #44
 1297 004c 01FB0232 		mla	r2, r1, r2, r3
 1298              	.L101:
 1299              	.LBE103:
 1300              	.LBE102:
  55:/opt/XMClib/XMC_Peripheral_Library_v2.1.16/ThirdPartyLibraries/USBlib/USB/Class/Device/CDCClassDevice.c **** 
 1301              		.loc 1 55 36 is_stmt 1 discriminator 1 view .LVU337
  55:/opt/XMClib/XMC_Peripheral_Library_v2.1.16/ThirdPartyLibraries/USBlib/USB/Class/Device/CDCClassDevice.c **** 
 1302              		.loc 1 55 11 discriminator 1 view .LVU338
 1303              	.LBB105:
 1304              	.LBI102:
 177:/opt/XMClib/XMC_Peripheral_Library_v2.1.16/ThirdPartyLibraries/USBlib/USB/Class/Device/../../Core/XMC4000/../XMC4000/Endpoint_XMC4000.h **** 	{
 1305              		.loc 2 177 21 discriminator 1 view .LVU339
 1306              	.LBB104:
 179:/opt/XMClib/XMC_Peripheral_Library_v2.1.16/ThirdPartyLibraries/USBlib/USB/Class/Device/../../Core/XMC4000/../XMC4000/Endpoint_XMC4000.h **** 		return ep->InInUse == 0 && ep->IsEnabled;
 1307              		.loc 2 179 3 discriminator 1 view .LVU340
 1308              	.LVL113:
 180:/opt/XMClib/XMC_Peripheral_Library_v2.1.16/ThirdPartyLibraries/USBlib/USB/Class/Device/../../Core/XMC4000/../XMC4000/Endpoint_XMC4000.h **** 	}
 1309              		.loc 2 180 3 discriminator 1 view .LVU341
 180:/opt/XMClib/XMC_Peripheral_Library_v2.1.16/ThirdPartyLibraries/USBlib/USB/Class/Device/../../Core/XMC4000/../XMC4000/Endpoint_XMC4000.h **** 	}
 1310              		.loc 2 180 12 is_stmt 0 discriminator 1 view .LVU342
 1311 0050 9368     		ldr	r3, [r2, #8]
 180:/opt/XMClib/XMC_Peripheral_Library_v2.1.16/ThirdPartyLibraries/USBlib/USB/Class/Device/../../Core/XMC4000/../XMC4000/Endpoint_XMC4000.h **** 	}
 1312              		.loc 2 180 27 discriminator 1 view .LVU343
 1313 0052 13F0100F 		tst	r3, #16
 1314 0056 FBD1     		bne	.L101
 180:/opt/XMClib/XMC_Peripheral_Library_v2.1.16/ThirdPartyLibraries/USBlib/USB/Class/Device/../../Core/XMC4000/../XMC4000/Endpoint_XMC4000.h **** 	}
 1315              		.loc 2 180 27 view .LVU344
 1316 0058 137A     		ldrb	r3, [r2, #8]	@ zero_extendqisi2
 1317 005a 13F0020F 		tst	r3, #2
 1318 005e F7D0     		beq	.L101
 1319              	.LBE104:
 1320              	.LBE105:
  57:/opt/XMClib/XMC_Peripheral_Library_v2.1.16/ThirdPartyLibraries/USBlib/USB/Class/Device/CDCClassDevice.c **** 				Endpoint_Write_8(CDCInterfaceInfo->State.LineEncoding.CharFormat);
 1321              		.loc 1 57 5 is_stmt 1 view .LVU345
 1322 0060 A069     		ldr	r0, [r4, #24]	@ unaligned
 1323              	.LVL114:
  57:/opt/XMClib/XMC_Peripheral_Library_v2.1.16/ThirdPartyLibraries/USBlib/USB/Class/Device/CDCClassDevice.c **** 				Endpoint_Write_8(CDCInterfaceInfo->State.LineEncoding.CharFormat);
 1324              		.loc 1 57 5 is_stmt 0 view .LVU346
 1325 0062 FFF7FEFF 		bl	Endpoint_Write_32_LE
 1326              	.LVL115:
  58:/opt/XMClib/XMC_Peripheral_Library_v2.1.16/ThirdPartyLibraries/USBlib/USB/Class/Device/CDCClassDevice.c **** 				Endpoint_Write_8(CDCInterfaceInfo->State.LineEncoding.ParityType);
 1327              		.loc 1 58 5 is_stmt 1 view .LVU347
 1328 0066 207F     		ldrb	r0, [r4, #28]	@ zero_extendqisi2
 1329 0068 FFF7FEFF 		bl	Endpoint_Write_8
 1330              	.LVL116:
  59:/opt/XMClib/XMC_Peripheral_Library_v2.1.16/ThirdPartyLibraries/USBlib/USB/Class/Device/CDCClassDevice.c **** 				Endpoint_Write_8(CDCInterfaceInfo->State.LineEncoding.DataBits);
 1331              		.loc 1 59 5 view .LVU348
 1332 006c 607F     		ldrb	r0, [r4, #29]	@ zero_extendqisi2
 1333 006e FFF7FEFF 		bl	Endpoint_Write_8
 1334              	.LVL117:
  60:/opt/XMClib/XMC_Peripheral_Library_v2.1.16/ThirdPartyLibraries/USBlib/USB/Class/Device/CDCClassDevice.c **** 
 1335              		.loc 1 60 5 view .LVU349
 1336 0072 A07F     		ldrb	r0, [r4, #30]	@ zero_extendqisi2
 1337 0074 FFF7FEFF 		bl	Endpoint_Write_8
 1338              	.LVL118:
  62:/opt/XMClib/XMC_Peripheral_Library_v2.1.16/ThirdPartyLibraries/USBlib/USB/Class/Device/CDCClassDevice.c **** 				Endpoint_ClearStatusStage();
 1339              		.loc 1 62 5 view .LVU350
 1340 0078 FFF7FEFF 		bl	Endpoint_ClearIN
 1341              	.LVL119:
  63:/opt/XMClib/XMC_Peripheral_Library_v2.1.16/ThirdPartyLibraries/USBlib/USB/Class/Device/CDCClassDevice.c **** 			}
 1342              		.loc 1 63 5 view .LVU351
 1343              	.LBB106:
 1344              	.LBI106:
 165:/opt/XMClib/XMC_Peripheral_Library_v2.1.16/ThirdPartyLibraries/USBlib/USB/Class/Device/../../Core/XMC4000/../XMC4000/Endpoint_XMC4000.h **** 	{
 1345              		.loc 2 165 21 view .LVU352
 1346              	.LBB107:
 168:/opt/XMClib/XMC_Peripheral_Library_v2.1.16/ThirdPartyLibraries/USBlib/USB/Class/Device/../../Core/XMC4000/../XMC4000/Endpoint_XMC4000.h **** 
 1347              		.loc 2 168 2 view .LVU353
 1348 007c 2FE0     		b	.L94
 1349              	.LVL120:
 1350              	.L100:
 168:/opt/XMClib/XMC_Peripheral_Library_v2.1.16/ThirdPartyLibraries/USBlib/USB/Class/Device/../../Core/XMC4000/../XMC4000/Endpoint_XMC4000.h **** 
 1351              		.loc 2 168 2 is_stmt 0 view .LVU354
 1352              	.LBE107:
 1353              	.LBE106:
  68:/opt/XMClib/XMC_Peripheral_Library_v2.1.16/ThirdPartyLibraries/USBlib/USB/Class/Device/CDCClassDevice.c **** 			{
 1354              		.loc 1 68 4 is_stmt 1 view .LVU355
  68:/opt/XMClib/XMC_Peripheral_Library_v2.1.16/ThirdPartyLibraries/USBlib/USB/Class/Device/CDCClassDevice.c **** 			{
 1355              		.loc 1 68 26 is_stmt 0 view .LVU356
 1356 007e 2A4B     		ldr	r3, .L113+4
  68:/opt/XMClib/XMC_Peripheral_Library_v2.1.16/ThirdPartyLibraries/USBlib/USB/Class/Device/CDCClassDevice.c **** 			{
 1357              		.loc 1 68 7 view .LVU357
 1358 0080 1B78     		ldrb	r3, [r3]	@ zero_extendqisi2
 1359 0082 212B     		cmp	r3, #33
 1360 0084 2BD1     		bne	.L94
  70:/opt/XMClib/XMC_Peripheral_Library_v2.1.16/ThirdPartyLibraries/USBlib/USB/Class/Device/CDCClassDevice.c **** 
 1361              		.loc 1 70 5 is_stmt 1 view .LVU358
 1362              	.LBB108:
 1363              	.LBI108:
 156:/opt/XMClib/XMC_Peripheral_Library_v2.1.16/ThirdPartyLibraries/USBlib/USB/Class/Device/../../Core/XMC4000/../XMC4000/Endpoint_XMC4000.h **** 	{
 1364              		.loc 2 156 21 view .LVU359
 1365              	.LBB109:
 158:/opt/XMClib/XMC_Peripheral_Library_v2.1.16/ThirdPartyLibraries/USBlib/USB/Class/Device/../../Core/XMC4000/../XMC4000/Endpoint_XMC4000.h **** 	}
 1366              		.loc 2 158 3 view .LVU360
 158:/opt/XMClib/XMC_Peripheral_Library_v2.1.16/ThirdPartyLibraries/USBlib/USB/Class/Device/../../Core/XMC4000/../XMC4000/Endpoint_XMC4000.h **** 	}
 1367              		.loc 2 158 26 is_stmt 0 view .LVU361
 1368 0086 274A     		ldr	r2, .L113
 1369 0088 92F83E31 		ldrb	r3, [r2, #318]	@ zero_extendqisi2
 1370 008c 6FF34103 		bfc	r3, #1, #1
 1371 0090 82F83E31 		strb	r3, [r2, #318]
 1372              	.LBE109:
 1373              	.LBE108:
 1374              	.LBB110:
 1375              	.LBB111:
 192:/opt/XMClib/XMC_Peripheral_Library_v2.1.16/ThirdPartyLibraries/USBlib/USB/Class/Device/../../Core/XMC4000/../XMC4000/Endpoint_XMC4000.h **** 		return ep->IsOutRecieved;
 1376              		.loc 2 192 49 view .LVU362
 1377 0094 92F83C21 		ldrb	r2, [r2, #316]	@ zero_extendqisi2
 193:/opt/XMClib/XMC_Peripheral_Library_v2.1.16/ThirdPartyLibraries/USBlib/USB/Class/Device/../../Core/XMC4000/../XMC4000/Endpoint_XMC4000.h **** 	}
 1378              		.loc 2 193 12 view .LVU363
 1379 0098 224B     		ldr	r3, .L113
 1380 009a 2C21     		movs	r1, #44
 1381 009c 01FB0232 		mla	r2, r1, r2, r3
 1382              	.LBE111:
 1383              	.LBE110:
  74:/opt/XMClib/XMC_Peripheral_Library_v2.1.16/ThirdPartyLibraries/USBlib/USB/Class/Device/CDCClassDevice.c **** 					  return;
 1384              		.loc 1 74 26 view .LVU364
 1385 00a0 2249     		ldr	r1, .L113+8
 1386              	.L104:
  72:/opt/XMClib/XMC_Peripheral_Library_v2.1.16/ThirdPartyLibraries/USBlib/USB/Class/Device/CDCClassDevice.c **** 				{
 1387              		.loc 1 72 11 is_stmt 1 view .LVU365
 1388              	.LBB113:
 1389              	.LBI110:
 190:/opt/XMClib/XMC_Peripheral_Library_v2.1.16/ThirdPartyLibraries/USBlib/USB/Class/Device/../../Core/XMC4000/../XMC4000/Endpoint_XMC4000.h **** 	{
 1390              		.loc 2 190 21 view .LVU366
 1391              	.LBB112:
 192:/opt/XMClib/XMC_Peripheral_Library_v2.1.16/ThirdPartyLibraries/USBlib/USB/Class/Device/../../Core/XMC4000/../XMC4000/Endpoint_XMC4000.h **** 		return ep->IsOutRecieved;
 1392              		.loc 2 192 3 view .LVU367
 1393              	.LVL121:
 193:/opt/XMClib/XMC_Peripheral_Library_v2.1.16/ThirdPartyLibraries/USBlib/USB/Class/Device/../../Core/XMC4000/../XMC4000/Endpoint_XMC4000.h **** 	}
 1394              		.loc 2 193 3 view .LVU368
 193:/opt/XMClib/XMC_Peripheral_Library_v2.1.16/ThirdPartyLibraries/USBlib/USB/Class/Device/../../Core/XMC4000/../XMC4000/Endpoint_XMC4000.h **** 	}
 1395              		.loc 2 193 12 is_stmt 0 view .LVU369
 1396 00a2 9368     		ldr	r3, [r2, #8]
 1397              	.LBE112:
 1398              	.LBE113:
  72:/opt/XMClib/XMC_Peripheral_Library_v2.1.16/ThirdPartyLibraries/USBlib/USB/Class/Device/CDCClassDevice.c **** 				{
 1399              		.loc 1 72 11 view .LVU370
 1400 00a4 13F0200F 		tst	r3, #32
 1401 00a8 03D1     		bne	.L111
  74:/opt/XMClib/XMC_Peripheral_Library_v2.1.16/ThirdPartyLibraries/USBlib/USB/Class/Device/CDCClassDevice.c **** 					  return;
 1402              		.loc 1 74 6 is_stmt 1 view .LVU371
  74:/opt/XMClib/XMC_Peripheral_Library_v2.1.16/ThirdPartyLibraries/USBlib/USB/Class/Device/CDCClassDevice.c **** 					  return;
 1403              		.loc 1 74 26 is_stmt 0 view .LVU372
 1404 00aa 0B78     		ldrb	r3, [r1]	@ zero_extendqisi2
  74:/opt/XMClib/XMC_Peripheral_Library_v2.1.16/ThirdPartyLibraries/USBlib/USB/Class/Device/CDCClassDevice.c **** 					  return;
 1405              		.loc 1 74 9 view .LVU373
 1406 00ac 002B     		cmp	r3, #0
 1407 00ae F8D1     		bne	.L104
 1408 00b0 15E0     		b	.L94
 1409              	.L111:
  78:/opt/XMClib/XMC_Peripheral_Library_v2.1.16/ThirdPartyLibraries/USBlib/USB/Class/Device/CDCClassDevice.c **** 				CDCInterfaceInfo->State.LineEncoding.CharFormat  = Endpoint_Read_8();
 1410              		.loc 1 78 5 is_stmt 1 view .LVU374
  78:/opt/XMClib/XMC_Peripheral_Library_v2.1.16/ThirdPartyLibraries/USBlib/USB/Class/Device/CDCClassDevice.c **** 				CDCInterfaceInfo->State.LineEncoding.CharFormat  = Endpoint_Read_8();
 1411              		.loc 1 78 56 is_stmt 0 view .LVU375
 1412 00b2 FFF7FEFF 		bl	Endpoint_Read_32_LE
 1413              	.LVL122:
  78:/opt/XMClib/XMC_Peripheral_Library_v2.1.16/ThirdPartyLibraries/USBlib/USB/Class/Device/CDCClassDevice.c **** 				CDCInterfaceInfo->State.LineEncoding.CharFormat  = Endpoint_Read_8();
 1414              		.loc 1 78 54 view .LVU376
 1415 00b6 A061     		str	r0, [r4, #24]	@ unaligned
  79:/opt/XMClib/XMC_Peripheral_Library_v2.1.16/ThirdPartyLibraries/USBlib/USB/Class/Device/CDCClassDevice.c **** 				CDCInterfaceInfo->State.LineEncoding.ParityType  = Endpoint_Read_8();
 1416              		.loc 1 79 5 is_stmt 1 view .LVU377
  79:/opt/XMClib/XMC_Peripheral_Library_v2.1.16/ThirdPartyLibraries/USBlib/USB/Class/Device/CDCClassDevice.c **** 				CDCInterfaceInfo->State.LineEncoding.ParityType  = Endpoint_Read_8();
 1417              		.loc 1 79 56 is_stmt 0 view .LVU378
 1418 00b8 FFF7FEFF 		bl	Endpoint_Read_8
 1419              	.LVL123:
  79:/opt/XMClib/XMC_Peripheral_Library_v2.1.16/ThirdPartyLibraries/USBlib/USB/Class/Device/CDCClassDevice.c **** 				CDCInterfaceInfo->State.LineEncoding.ParityType  = Endpoint_Read_8();
 1420              		.loc 1 79 54 view .LVU379
 1421 00bc 2077     		strb	r0, [r4, #28]
  80:/opt/XMClib/XMC_Peripheral_Library_v2.1.16/ThirdPartyLibraries/USBlib/USB/Class/Device/CDCClassDevice.c **** 				CDCInterfaceInfo->State.LineEncoding.DataBits    = Endpoint_Read_8();
 1422              		.loc 1 80 5 is_stmt 1 view .LVU380
  80:/opt/XMClib/XMC_Peripheral_Library_v2.1.16/ThirdPartyLibraries/USBlib/USB/Class/Device/CDCClassDevice.c **** 				CDCInterfaceInfo->State.LineEncoding.DataBits    = Endpoint_Read_8();
 1423              		.loc 1 80 56 is_stmt 0 view .LVU381
 1424 00be FFF7FEFF 		bl	Endpoint_Read_8
 1425              	.LVL124:
  80:/opt/XMClib/XMC_Peripheral_Library_v2.1.16/ThirdPartyLibraries/USBlib/USB/Class/Device/CDCClassDevice.c **** 				CDCInterfaceInfo->State.LineEncoding.DataBits    = Endpoint_Read_8();
 1426              		.loc 1 80 54 view .LVU382
 1427 00c2 6077     		strb	r0, [r4, #29]
  81:/opt/XMClib/XMC_Peripheral_Library_v2.1.16/ThirdPartyLibraries/USBlib/USB/Class/Device/CDCClassDevice.c **** 
 1428              		.loc 1 81 5 is_stmt 1 view .LVU383
  81:/opt/XMClib/XMC_Peripheral_Library_v2.1.16/ThirdPartyLibraries/USBlib/USB/Class/Device/CDCClassDevice.c **** 
 1429              		.loc 1 81 56 is_stmt 0 view .LVU384
 1430 00c4 FFF7FEFF 		bl	Endpoint_Read_8
 1431              	.LVL125:
  81:/opt/XMClib/XMC_Peripheral_Library_v2.1.16/ThirdPartyLibraries/USBlib/USB/Class/Device/CDCClassDevice.c **** 
 1432              		.loc 1 81 54 view .LVU385
 1433 00c8 A077     		strb	r0, [r4, #30]
  83:/opt/XMClib/XMC_Peripheral_Library_v2.1.16/ThirdPartyLibraries/USBlib/USB/Class/Device/CDCClassDevice.c **** 				Endpoint_ClearStatusStage();
 1434              		.loc 1 83 5 is_stmt 1 view .LVU386
 1435 00ca FFF7FEFF 		bl	Endpoint_ClearOUT
 1436              	.LVL126:
  84:/opt/XMClib/XMC_Peripheral_Library_v2.1.16/ThirdPartyLibraries/USBlib/USB/Class/Device/CDCClassDevice.c **** 
 1437              		.loc 1 84 5 view .LVU387
 168:/opt/XMClib/XMC_Peripheral_Library_v2.1.16/ThirdPartyLibraries/USBlib/USB/Class/Device/../../Core/XMC4000/../XMC4000/Endpoint_XMC4000.h **** 
 1438              		.loc 2 168 2 view .LVU388
  86:/opt/XMClib/XMC_Peripheral_Library_v2.1.16/ThirdPartyLibraries/USBlib/USB/Class/Device/CDCClassDevice.c **** 			}
 1439              		.loc 1 86 5 view .LVU389
 1440 00ce 2046     		mov	r0, r4
 1441 00d0 FFF7FEFF 		bl	EVENT_CDC_Device_LineEncodingChanged
 1442              	.LVL127:
 1443 00d4 03E0     		b	.L94
 1444              	.LVL128:
 1445              	.L98:
  91:/opt/XMClib/XMC_Peripheral_Library_v2.1.16/ThirdPartyLibraries/USBlib/USB/Class/Device/CDCClassDevice.c **** 			{
 1446              		.loc 1 91 4 view .LVU390
  91:/opt/XMClib/XMC_Peripheral_Library_v2.1.16/ThirdPartyLibraries/USBlib/USB/Class/Device/CDCClassDevice.c **** 			{
 1447              		.loc 1 91 26 is_stmt 0 view .LVU391
 1448 00d6 144B     		ldr	r3, .L113+4
  91:/opt/XMClib/XMC_Peripheral_Library_v2.1.16/ThirdPartyLibraries/USBlib/USB/Class/Device/CDCClassDevice.c **** 			{
 1449              		.loc 1 91 7 view .LVU392
 1450 00d8 1B78     		ldrb	r3, [r3]	@ zero_extendqisi2
 1451 00da 212B     		cmp	r3, #33
 1452 00dc 00D0     		beq	.L112
 1453              	.LVL129:
 1454              	.L94:
 113:/opt/XMClib/XMC_Peripheral_Library_v2.1.16/ThirdPartyLibraries/USBlib/USB/Class/Device/CDCClassDevice.c **** 
 1455              		.loc 1 113 1 view .LVU393
 1456 00de 10BD     		pop	{r4, pc}
 1457              	.LVL130:
 1458              	.L112:
  93:/opt/XMClib/XMC_Peripheral_Library_v2.1.16/ThirdPartyLibraries/USBlib/USB/Class/Device/CDCClassDevice.c **** 				Endpoint_ClearStatusStage();
 1459              		.loc 1 93 5 is_stmt 1 view .LVU394
 1460              	.LBB114:
 1461              	.LBI114:
 156:/opt/XMClib/XMC_Peripheral_Library_v2.1.16/ThirdPartyLibraries/USBlib/USB/Class/Device/../../Core/XMC4000/../XMC4000/Endpoint_XMC4000.h **** 	{
 1462              		.loc 2 156 21 view .LVU395
 1463              	.LBB115:
 158:/opt/XMClib/XMC_Peripheral_Library_v2.1.16/ThirdPartyLibraries/USBlib/USB/Class/Device/../../Core/XMC4000/../XMC4000/Endpoint_XMC4000.h **** 	}
 1464              		.loc 2 158 3 view .LVU396
 158:/opt/XMClib/XMC_Peripheral_Library_v2.1.16/ThirdPartyLibraries/USBlib/USB/Class/Device/../../Core/XMC4000/../XMC4000/Endpoint_XMC4000.h **** 	}
 1465              		.loc 2 158 26 is_stmt 0 view .LVU397
 1466 00e0 104A     		ldr	r2, .L113
 1467 00e2 92F83E31 		ldrb	r3, [r2, #318]	@ zero_extendqisi2
 1468 00e6 6FF34103 		bfc	r3, #1, #1
 1469 00ea 82F83E31 		strb	r3, [r2, #318]
 1470              	.LBE115:
 1471              	.LBE114:
  94:/opt/XMClib/XMC_Peripheral_Library_v2.1.16/ThirdPartyLibraries/USBlib/USB/Class/Device/CDCClassDevice.c **** 
 1472              		.loc 1 94 5 is_stmt 1 view .LVU398
 168:/opt/XMClib/XMC_Peripheral_Library_v2.1.16/ThirdPartyLibraries/USBlib/USB/Class/Device/../../Core/XMC4000/../XMC4000/Endpoint_XMC4000.h **** 
 1473              		.loc 2 168 2 view .LVU399
  96:/opt/XMClib/XMC_Peripheral_Library_v2.1.16/ThirdPartyLibraries/USBlib/USB/Class/Device/CDCClassDevice.c **** 
 1474              		.loc 1 96 5 view .LVU400
  96:/opt/XMClib/XMC_Peripheral_Library_v2.1.16/ThirdPartyLibraries/USBlib/USB/Class/Device/CDCClassDevice.c **** 
 1475              		.loc 1 96 80 is_stmt 0 view .LVU401
 1476 00ee 0E4A     		ldr	r2, .L113+4
 1477 00f0 9378     		ldrb	r3, [r2, #2]	@ zero_extendqisi2
 1478 00f2 D278     		ldrb	r2, [r2, #3]	@ zero_extendqisi2
 1479 00f4 43EA0223 		orr	r3, r3, r2, lsl #8
  96:/opt/XMClib/XMC_Peripheral_Library_v2.1.16/ThirdPartyLibraries/USBlib/USB/Class/Device/CDCClassDevice.c **** 
 1480              		.loc 1 96 60 view .LVU402
 1481 00f8 8382     		strh	r3, [r0, #20]	@ movhi
  98:/opt/XMClib/XMC_Peripheral_Library_v2.1.16/ThirdPartyLibraries/USBlib/USB/Class/Device/CDCClassDevice.c **** 			}
 1482              		.loc 1 98 5 is_stmt 1 view .LVU403
 1483 00fa FFF7FEFF 		bl	EVENT_CDC_Device_ControLineStateChanged
 1484              	.LVL131:
  98:/opt/XMClib/XMC_Peripheral_Library_v2.1.16/ThirdPartyLibraries/USBlib/USB/Class/Device/CDCClassDevice.c **** 			}
 1485              		.loc 1 98 5 is_stmt 0 view .LVU404
 1486 00fe EEE7     		b	.L94
 1487              	.LVL132:
 1488              	.L96:
 103:/opt/XMClib/XMC_Peripheral_Library_v2.1.16/ThirdPartyLibraries/USBlib/USB/Class/Device/CDCClassDevice.c **** 			{
 1489              		.loc 1 103 4 is_stmt 1 view .LVU405
 103:/opt/XMClib/XMC_Peripheral_Library_v2.1.16/ThirdPartyLibraries/USBlib/USB/Class/Device/CDCClassDevice.c **** 			{
 1490              		.loc 1 103 26 is_stmt 0 view .LVU406
 1491 0100 094B     		ldr	r3, .L113+4
 103:/opt/XMClib/XMC_Peripheral_Library_v2.1.16/ThirdPartyLibraries/USBlib/USB/Class/Device/CDCClassDevice.c **** 			{
 1492              		.loc 1 103 7 view .LVU407
 1493 0102 1B78     		ldrb	r3, [r3]	@ zero_extendqisi2
 1494 0104 212B     		cmp	r3, #33
 1495 0106 EAD1     		bne	.L94
 105:/opt/XMClib/XMC_Peripheral_Library_v2.1.16/ThirdPartyLibraries/USBlib/USB/Class/Device/CDCClassDevice.c **** 				Endpoint_ClearStatusStage();
 1496              		.loc 1 105 5 is_stmt 1 view .LVU408
 1497              	.LBB116:
 1498              	.LBI116:
 156:/opt/XMClib/XMC_Peripheral_Library_v2.1.16/ThirdPartyLibraries/USBlib/USB/Class/Device/../../Core/XMC4000/../XMC4000/Endpoint_XMC4000.h **** 	{
 1499              		.loc 2 156 21 view .LVU409
 1500              	.LBB117:
 158:/opt/XMClib/XMC_Peripheral_Library_v2.1.16/ThirdPartyLibraries/USBlib/USB/Class/Device/../../Core/XMC4000/../XMC4000/Endpoint_XMC4000.h **** 	}
 1501              		.loc 2 158 3 view .LVU410
 158:/opt/XMClib/XMC_Peripheral_Library_v2.1.16/ThirdPartyLibraries/USBlib/USB/Class/Device/../../Core/XMC4000/../XMC4000/Endpoint_XMC4000.h **** 	}
 1502              		.loc 2 158 26 is_stmt 0 view .LVU411
 1503 0108 064A     		ldr	r2, .L113
 1504 010a 92F83E31 		ldrb	r3, [r2, #318]	@ zero_extendqisi2
 1505 010e 6FF34103 		bfc	r3, #1, #1
 1506 0112 82F83E31 		strb	r3, [r2, #318]
 1507              	.LBE117:
 1508              	.LBE116:
 106:/opt/XMClib/XMC_Peripheral_Library_v2.1.16/ThirdPartyLibraries/USBlib/USB/Class/Device/CDCClassDevice.c **** 
 1509              		.loc 1 106 5 is_stmt 1 view .LVU412
 168:/opt/XMClib/XMC_Peripheral_Library_v2.1.16/ThirdPartyLibraries/USBlib/USB/Class/Device/../../Core/XMC4000/../XMC4000/Endpoint_XMC4000.h **** 
 1510              		.loc 2 168 2 view .LVU413
 108:/opt/XMClib/XMC_Peripheral_Library_v2.1.16/ThirdPartyLibraries/USBlib/USB/Class/Device/CDCClassDevice.c **** 			}
 1511              		.loc 1 108 5 view .LVU414
 108:/opt/XMClib/XMC_Peripheral_Library_v2.1.16/ThirdPartyLibraries/USBlib/USB/Class/Device/CDCClassDevice.c **** 			}
 1512              		.loc 1 108 77 is_stmt 0 view .LVU415
 1513 0116 044B     		ldr	r3, .L113+4
 1514 0118 5988     		ldrh	r1, [r3, #2]	@ unaligned
 108:/opt/XMClib/XMC_Peripheral_Library_v2.1.16/ThirdPartyLibraries/USBlib/USB/Class/Device/CDCClassDevice.c **** 			}
 1515              		.loc 1 108 5 view .LVU416
 1516 011a C9B2     		uxtb	r1, r1
 1517 011c FFF7FEFF 		bl	EVENT_CDC_Device_BreakSent
 1518              	.LVL133:
 108:/opt/XMClib/XMC_Peripheral_Library_v2.1.16/ThirdPartyLibraries/USBlib/USB/Class/Device/CDCClassDevice.c **** 			}
 1519              		.loc 1 108 5 view .LVU417
 1520 0120 DDE7     		b	.L94
 1521              	.LVL134:
 1522              	.L108:
 1523              	.LCFI18:
 1524              		.cfi_def_cfa_offset 0
 1525              		.cfi_restore 4
 1526              		.cfi_restore 14
 108:/opt/XMClib/XMC_Peripheral_Library_v2.1.16/ThirdPartyLibraries/USBlib/USB/Class/Device/CDCClassDevice.c **** 			}
 1527              		.loc 1 108 5 view .LVU418
 1528 0122 7047     		bx	lr
 1529              	.L114:
 1530              		.align	2
 1531              	.L113:
 1532 0124 00000000 		.word	device
 1533 0128 00000000 		.word	USB_ControlRequest
 1534 012c 00000000 		.word	USB_DeviceState
 1535              		.cfi_endproc
 1536              	.LFE193:
 1538              		.section	.rodata
 1539              		.align	2
 1540              		.set	.LANCHOR0,. + 0
 1541              	.LC0:
 1542 0000 A1       		.byte	-95
 1543 0001 20       		.byte	32
 1544 0002 0000     		.short	0
 1545 0004 0000     		.short	0
 1546 0006 0200     		.short	2
 1547              		.text
 1548              	.Letext0:
 1549              		.file 3 "/usr/lib/gcc/arm-none-eabi/9.2.1/include/stdint.h"
 1550              		.file 4 "/usr/lib/gcc/arm-none-eabi/9.2.1/include/stddef.h"
 1551              		.file 5 "/usr/include/newlib/sys/_types.h"
 1552              		.file 6 "/usr/include/newlib/sys/reent.h"
 1553              		.file 7 "/usr/include/newlib/sys/lock.h"
 1554              		.file 8 "/opt/XMClib/XMC_Peripheral_Library_v2.1.16/CMSIS/Include/core_cm4.h"
 1555              		.file 9 "/opt/XMClib/XMC_Peripheral_Library_v2.1.16/CMSIS/Infineon/XMC4500_series/Include/system_X
 1556              		.file 10 "/opt/XMClib/XMC_Peripheral_Library_v2.1.16/CMSIS/Infineon/XMC4500_series/Include/XMC4500
 1557              		.file 11 "/usr/include/newlib/stdlib.h"
 1558              		.file 12 "/opt/XMClib/XMC_Peripheral_Library_v2.1.16/XMCLib/inc/xmc_usbd_regs.h"
 1559              		.file 13 "/opt/XMClib/XMC_Peripheral_Library_v2.1.16/XMCLib/inc/xmc_usbd.h"
 1560              		.file 14 "/opt/XMClib/XMC_Peripheral_Library_v2.1.16/ThirdPartyLibraries/USBlib/USB/Class/Device/.
 1561              		.file 15 "/opt/XMClib/XMC_Peripheral_Library_v2.1.16/ThirdPartyLibraries/USBlib/USB/Class/Device/.
 1562              		.file 16 "/opt/XMClib/XMC_Peripheral_Library_v2.1.16/ThirdPartyLibraries/USBlib/USB/Class/Device/.
 1563              		.file 17 "/opt/XMClib/XMC_Peripheral_Library_v2.1.16/ThirdPartyLibraries/USBlib/USB/Class/Device/.
 1564              		.file 18 "/opt/XMClib/XMC_Peripheral_Library_v2.1.16/ThirdPartyLibraries/USBlib/USB/Class/Device/.
 1565              		.file 19 "/opt/XMClib/XMC_Peripheral_Library_v2.1.16/ThirdPartyLibraries/USBlib/USB/Class/Device/.
 1566              		.file 20 "/opt/XMClib/XMC_Peripheral_Library_v2.1.16/ThirdPartyLibraries/USBlib/USB/Class/Device/.
 1567              		.file 21 "/opt/XMClib/XMC_Peripheral_Library_v2.1.16/ThirdPartyLibraries/USBlib/USB/Class/Device/.
 1568              		.file 22 "/opt/XMClib/XMC_Peripheral_Library_v2.1.16/ThirdPartyLibraries/USBlib/USB/Class/Device/C
 1569              		.file 23 "/opt/XMClib/XMC_Peripheral_Library_v2.1.16/ThirdPartyLibraries/USBlib/USB/Class/Device/.
 1570              		.file 24 "/usr/include/newlib/string.h"