   1              		.cpu cortex-m4
   2              		.eabi_attribute 27, 1
   3              		.eabi_attribute 20, 1
   4              		.eabi_attribute 21, 1
   5              		.eabi_attribute 23, 3
   6              		.eabi_attribute 24, 1
   7              		.eabi_attribute 25, 1
   8              		.eabi_attribute 26, 1
   9              		.eabi_attribute 30, 1
  10              		.eabi_attribute 34, 1
  11              		.eabi_attribute 18, 4
  12              		.file	"xmc_ccu4.c"
  13              		.text
  14              	.Ltext0:
  15              		.cfi_sections	.debug_frame
  16              		.section	.text.XMC_CCU4_EnableModule,"ax",%progbits
  17              		.align	1
  18              		.global	XMC_CCU4_EnableModule
  19              		.arch armv7e-m
  20              		.syntax unified
  21              		.thumb
  22              		.thumb_func
  23              		.fpu fpv4-sp-d16
  25              	XMC_CCU4_EnableModule:
  26              	.LVL0:
  27              	.LFB205:
  28              		.file 1 "/opt/XMClib/XMC_Peripheral_Library_v2.1.16/XMCLib/src/xmc_ccu4.c"
   1:/opt/XMClib/XMC_Peripheral_Library_v2.1.16/XMCLib/src/xmc_ccu4.c **** /**
   2:/opt/XMClib/XMC_Peripheral_Library_v2.1.16/XMCLib/src/xmc_ccu4.c ****  * @file xmc_ccu4.c
   3:/opt/XMClib/XMC_Peripheral_Library_v2.1.16/XMCLib/src/xmc_ccu4.c ****  * @date 2017-04-27
   4:/opt/XMClib/XMC_Peripheral_Library_v2.1.16/XMCLib/src/xmc_ccu4.c ****  *
   5:/opt/XMClib/XMC_Peripheral_Library_v2.1.16/XMCLib/src/xmc_ccu4.c ****  * @cond
   6:/opt/XMClib/XMC_Peripheral_Library_v2.1.16/XMCLib/src/xmc_ccu4.c ****  **************************************************************************************************
   7:/opt/XMClib/XMC_Peripheral_Library_v2.1.16/XMCLib/src/xmc_ccu4.c ****  * XMClib v2.1.16 - XMC Peripheral Driver Library 
   8:/opt/XMClib/XMC_Peripheral_Library_v2.1.16/XMCLib/src/xmc_ccu4.c ****  *
   9:/opt/XMClib/XMC_Peripheral_Library_v2.1.16/XMCLib/src/xmc_ccu4.c ****  * Copyright (c) 2015-2017, Infineon Technologies AG
  10:/opt/XMClib/XMC_Peripheral_Library_v2.1.16/XMCLib/src/xmc_ccu4.c ****  * All rights reserved.                        
  11:/opt/XMClib/XMC_Peripheral_Library_v2.1.16/XMCLib/src/xmc_ccu4.c ****  *                                             
  12:/opt/XMClib/XMC_Peripheral_Library_v2.1.16/XMCLib/src/xmc_ccu4.c ****  * Redistribution and use in source and binary forms, with or without modification,are permitted pr
  13:/opt/XMClib/XMC_Peripheral_Library_v2.1.16/XMCLib/src/xmc_ccu4.c ****  * following conditions are met:   
  14:/opt/XMClib/XMC_Peripheral_Library_v2.1.16/XMCLib/src/xmc_ccu4.c ****  *                                                                              
  15:/opt/XMClib/XMC_Peripheral_Library_v2.1.16/XMCLib/src/xmc_ccu4.c ****  * Redistributions of source code must retain the above copyright notice, this list of conditions a
  16:/opt/XMClib/XMC_Peripheral_Library_v2.1.16/XMCLib/src/xmc_ccu4.c ****  * disclaimer.                        
  17:/opt/XMClib/XMC_Peripheral_Library_v2.1.16/XMCLib/src/xmc_ccu4.c ****  * 
  18:/opt/XMClib/XMC_Peripheral_Library_v2.1.16/XMCLib/src/xmc_ccu4.c ****  * Redistributions in binary form must reproduce the above copyright notice, this list of condition
  19:/opt/XMClib/XMC_Peripheral_Library_v2.1.16/XMCLib/src/xmc_ccu4.c ****  * disclaimer in the documentation and/or other materials provided with the distribution.          
  20:/opt/XMClib/XMC_Peripheral_Library_v2.1.16/XMCLib/src/xmc_ccu4.c ****  * 
  21:/opt/XMClib/XMC_Peripheral_Library_v2.1.16/XMCLib/src/xmc_ccu4.c ****  * Neither the name of the copyright holders nor the names of its contributors may be used to endor
  22:/opt/XMClib/XMC_Peripheral_Library_v2.1.16/XMCLib/src/xmc_ccu4.c ****  * products derived from this software without specific prior written permission.                  
  23:/opt/XMClib/XMC_Peripheral_Library_v2.1.16/XMCLib/src/xmc_ccu4.c ****  *                                                                              
  24:/opt/XMClib/XMC_Peripheral_Library_v2.1.16/XMCLib/src/xmc_ccu4.c ****  * THIS SOFTWARE IS PROVIDED BY THE COPYRIGHT HOLDERS AND CONTRIBUTORS "AS IS" AND ANY EXPRESS OR I
  25:/opt/XMClib/XMC_Peripheral_Library_v2.1.16/XMCLib/src/xmc_ccu4.c ****  * INCLUDING, BUT NOT LIMITED TO, THE IMPLIED WARRANTIES OF MERCHANTABILITY AND FITNESS FOR A PARTI
  26:/opt/XMClib/XMC_Peripheral_Library_v2.1.16/XMCLib/src/xmc_ccu4.c ****  * DISCLAIMED. IN NO EVENT SHALL THE COPYRIGHT HOLDER OR CONTRIBUTORS BE LIABLE  FOR ANY DIRECT, IN
  27:/opt/XMClib/XMC_Peripheral_Library_v2.1.16/XMCLib/src/xmc_ccu4.c ****  * SPECIAL, EXEMPLARY, OR CONSEQUENTIAL DAMAGES (INCLUDING, BUT NOT LIMITED TO, PROCUREMENT OF SUBS
  28:/opt/XMClib/XMC_Peripheral_Library_v2.1.16/XMCLib/src/xmc_ccu4.c ****  * SERVICES; LOSS OF USE, DATA, OR PROFITS; OR BUSINESS INTERRUPTION) HOWEVER CAUSED AND ON ANY THE
  29:/opt/XMClib/XMC_Peripheral_Library_v2.1.16/XMCLib/src/xmc_ccu4.c ****  * WHETHER IN CONTRACT, STRICT LIABILITY,OR TORT (INCLUDING NEGLIGENCE OR OTHERWISE) ARISING IN ANY
  30:/opt/XMClib/XMC_Peripheral_Library_v2.1.16/XMCLib/src/xmc_ccu4.c ****  * OF THIS SOFTWARE, EVEN IF ADVISED OF THE POSSIBILITY OF SUCH DAMAGE.                            
  31:/opt/XMClib/XMC_Peripheral_Library_v2.1.16/XMCLib/src/xmc_ccu4.c ****  *                                                                              
  32:/opt/XMClib/XMC_Peripheral_Library_v2.1.16/XMCLib/src/xmc_ccu4.c ****  * To improve the quality of the software, users are encouraged to share modifications, enhancement
  33:/opt/XMClib/XMC_Peripheral_Library_v2.1.16/XMCLib/src/xmc_ccu4.c ****  * Infineon Technologies AG dave@infineon.com).                                                    
  34:/opt/XMClib/XMC_Peripheral_Library_v2.1.16/XMCLib/src/xmc_ccu4.c ****  **************************************************************************************************
  35:/opt/XMClib/XMC_Peripheral_Library_v2.1.16/XMCLib/src/xmc_ccu4.c ****  *
  36:/opt/XMClib/XMC_Peripheral_Library_v2.1.16/XMCLib/src/xmc_ccu4.c ****  * Change History
  37:/opt/XMClib/XMC_Peripheral_Library_v2.1.16/XMCLib/src/xmc_ccu4.c ****  * --------------
  38:/opt/XMClib/XMC_Peripheral_Library_v2.1.16/XMCLib/src/xmc_ccu4.c ****  *
  39:/opt/XMClib/XMC_Peripheral_Library_v2.1.16/XMCLib/src/xmc_ccu4.c ****  * 2015-02-20:
  40:/opt/XMClib/XMC_Peripheral_Library_v2.1.16/XMCLib/src/xmc_ccu4.c ****  *     - Initial <br>
  41:/opt/XMClib/XMC_Peripheral_Library_v2.1.16/XMCLib/src/xmc_ccu4.c ****  *
  42:/opt/XMClib/XMC_Peripheral_Library_v2.1.16/XMCLib/src/xmc_ccu4.c ****  * 2015-06-20:
  43:/opt/XMClib/XMC_Peripheral_Library_v2.1.16/XMCLib/src/xmc_ccu4.c ****  *     - Removed definition of GetDriverVersion API <br>
  44:/opt/XMClib/XMC_Peripheral_Library_v2.1.16/XMCLib/src/xmc_ccu4.c ****  *
  45:/opt/XMClib/XMC_Peripheral_Library_v2.1.16/XMCLib/src/xmc_ccu4.c ****  * 2015-07-01:
  46:/opt/XMClib/XMC_Peripheral_Library_v2.1.16/XMCLib/src/xmc_ccu4.c ****  *     - In XMC_CCU4_SLICE_StartConfig(), Options in XMC_ASSERT check for start mode is corrected. 
  47:/opt/XMClib/XMC_Peripheral_Library_v2.1.16/XMCLib/src/xmc_ccu4.c ****  *
  48:/opt/XMClib/XMC_Peripheral_Library_v2.1.16/XMCLib/src/xmc_ccu4.c ****  * 2015-07-24:
  49:/opt/XMClib/XMC_Peripheral_Library_v2.1.16/XMCLib/src/xmc_ccu4.c ****  *     - XMC_CCU4_SLICE_ConfigureStatusBitOverrideEvent() is updated to support XMC14 device. <br>
  50:/opt/XMClib/XMC_Peripheral_Library_v2.1.16/XMCLib/src/xmc_ccu4.c ****  *
  51:/opt/XMClib/XMC_Peripheral_Library_v2.1.16/XMCLib/src/xmc_ccu4.c ****  * 2015-08-17:
  52:/opt/XMClib/XMC_Peripheral_Library_v2.1.16/XMCLib/src/xmc_ccu4.c ****  *     - Start of prescaler XMC_CCU4_StartPrescaler() is invoked in XMC_CCU4_Init() API. <br>
  53:/opt/XMClib/XMC_Peripheral_Library_v2.1.16/XMCLib/src/xmc_ccu4.c ****  *     - Bug fix XMC_CCU4_SLICE_ConfigureEvent() during the level setting for XMC14 devices. <br>
  54:/opt/XMClib/XMC_Peripheral_Library_v2.1.16/XMCLib/src/xmc_ccu4.c ****  *     - XMC_CCU4_EnableShadowTransfer() definition is removed, since the API is made as inline. <b
  55:/opt/XMClib/XMC_Peripheral_Library_v2.1.16/XMCLib/src/xmc_ccu4.c ****  *
  56:/opt/XMClib/XMC_Peripheral_Library_v2.1.16/XMCLib/src/xmc_ccu4.c ****  * 2015-10-07:
  57:/opt/XMClib/XMC_Peripheral_Library_v2.1.16/XMCLib/src/xmc_ccu4.c ****  *     - XMC_CCU4_SLICE_GetEvent() is made as inline.
  58:/opt/XMClib/XMC_Peripheral_Library_v2.1.16/XMCLib/src/xmc_ccu4.c ****  *     - DOC updates for the newly added APIs.
  59:/opt/XMClib/XMC_Peripheral_Library_v2.1.16/XMCLib/src/xmc_ccu4.c ****  *
  60:/opt/XMClib/XMC_Peripheral_Library_v2.1.16/XMCLib/src/xmc_ccu4.c ****  * 2017-02-25:
  61:/opt/XMClib/XMC_Peripheral_Library_v2.1.16/XMCLib/src/xmc_ccu4.c ****  *     - XMC_CCU4_lAssertReset(), XMC_CCU4_lDeassertReset(), XMC_CCU4_lGateClock() and XMC_CCU4_lUn
  62:/opt/XMClib/XMC_Peripheral_Library_v2.1.16/XMCLib/src/xmc_ccu4.c ****  *
  63:/opt/XMClib/XMC_Peripheral_Library_v2.1.16/XMCLib/src/xmc_ccu4.c ****  * 2017-04-27:
  64:/opt/XMClib/XMC_Peripheral_Library_v2.1.16/XMCLib/src/xmc_ccu4.c ****  *     - XMC_CCU4_SLICE_SetPrescaler() changed div_val parameter to type XMC_CCU4_SLICE_PRESCALER_t
  65:/opt/XMClib/XMC_Peripheral_Library_v2.1.16/XMCLib/src/xmc_ccu4.c ****  *
  66:/opt/XMClib/XMC_Peripheral_Library_v2.1.16/XMCLib/src/xmc_ccu4.c ****  * @endcond
  67:/opt/XMClib/XMC_Peripheral_Library_v2.1.16/XMCLib/src/xmc_ccu4.c ****  */
  68:/opt/XMClib/XMC_Peripheral_Library_v2.1.16/XMCLib/src/xmc_ccu4.c ****  
  69:/opt/XMClib/XMC_Peripheral_Library_v2.1.16/XMCLib/src/xmc_ccu4.c **** /**************************************************************************************************
  70:/opt/XMClib/XMC_Peripheral_Library_v2.1.16/XMCLib/src/xmc_ccu4.c ****  * HEADER FILES
  71:/opt/XMClib/XMC_Peripheral_Library_v2.1.16/XMCLib/src/xmc_ccu4.c ****  **************************************************************************************************
  72:/opt/XMClib/XMC_Peripheral_Library_v2.1.16/XMCLib/src/xmc_ccu4.c **** #include "xmc_ccu4.h"
  73:/opt/XMClib/XMC_Peripheral_Library_v2.1.16/XMCLib/src/xmc_ccu4.c **** 
  74:/opt/XMClib/XMC_Peripheral_Library_v2.1.16/XMCLib/src/xmc_ccu4.c **** #if defined(CCU40)
  75:/opt/XMClib/XMC_Peripheral_Library_v2.1.16/XMCLib/src/xmc_ccu4.c **** #include "xmc_scu.h"
  76:/opt/XMClib/XMC_Peripheral_Library_v2.1.16/XMCLib/src/xmc_ccu4.c **** /**************************************************************************************************
  77:/opt/XMClib/XMC_Peripheral_Library_v2.1.16/XMCLib/src/xmc_ccu4.c ****  * MACROS
  78:/opt/XMClib/XMC_Peripheral_Library_v2.1.16/XMCLib/src/xmc_ccu4.c ****  **************************************************************************************************
  79:/opt/XMClib/XMC_Peripheral_Library_v2.1.16/XMCLib/src/xmc_ccu4.c **** #define XMC_CCU4_NUM_SLICES_PER_MODULE          (4U)
  80:/opt/XMClib/XMC_Peripheral_Library_v2.1.16/XMCLib/src/xmc_ccu4.c **** #define XMC_CCU4_SLICE_DITHER_PERIOD_MASK       (1U)
  81:/opt/XMClib/XMC_Peripheral_Library_v2.1.16/XMCLib/src/xmc_ccu4.c **** #define XMC_CCU4_SLICE_DITHER_DUTYCYCLE_MASK    (2U)
  82:/opt/XMClib/XMC_Peripheral_Library_v2.1.16/XMCLib/src/xmc_ccu4.c **** #define XMC_CCU4_SLICE_EVENT_EDGE_CONFIG_MASK   (3U)
  83:/opt/XMClib/XMC_Peripheral_Library_v2.1.16/XMCLib/src/xmc_ccu4.c **** #define XMC_CCU4_SLICE_EVENT_LEVEL_CONFIG_MASK  (1U)
  84:/opt/XMClib/XMC_Peripheral_Library_v2.1.16/XMCLib/src/xmc_ccu4.c **** #define XMC_CCU4_SLICE_EVENT_FILTER_CONFIG_MASK (3U)
  85:/opt/XMClib/XMC_Peripheral_Library_v2.1.16/XMCLib/src/xmc_ccu4.c **** #if defined(CCU4V3) /* Defined for XMC1400 devices only */
  86:/opt/XMClib/XMC_Peripheral_Library_v2.1.16/XMCLib/src/xmc_ccu4.c **** #define XMC_CCU4_SLICE_EVENT_INPUT_CONFIG_MASK  CCU4_CC4_INS1_EV0IS_Msk
  87:/opt/XMClib/XMC_Peripheral_Library_v2.1.16/XMCLib/src/xmc_ccu4.c **** #else
  88:/opt/XMClib/XMC_Peripheral_Library_v2.1.16/XMCLib/src/xmc_ccu4.c **** #define XMC_CCU4_SLICE_EVENT_INPUT_CONFIG_MASK  CCU4_CC4_INS_EV0IS_Msk
  89:/opt/XMClib/XMC_Peripheral_Library_v2.1.16/XMCLib/src/xmc_ccu4.c **** #endif
  90:/opt/XMClib/XMC_Peripheral_Library_v2.1.16/XMCLib/src/xmc_ccu4.c **** #define XMC_CCU4_GIDLC_CLOCK_MASK               (15U)
  91:/opt/XMClib/XMC_Peripheral_Library_v2.1.16/XMCLib/src/xmc_ccu4.c **** #define XMC_CCU4_GCSS_SLICE0_MASK               (1U)
  92:/opt/XMClib/XMC_Peripheral_Library_v2.1.16/XMCLib/src/xmc_ccu4.c **** #define XMC_CCU4_GCSS_SLICE1_MASK               (16U)
  93:/opt/XMClib/XMC_Peripheral_Library_v2.1.16/XMCLib/src/xmc_ccu4.c **** #define XMC_CCU4_GCSS_SLICE2_MASK               (256U)
  94:/opt/XMClib/XMC_Peripheral_Library_v2.1.16/XMCLib/src/xmc_ccu4.c **** #define XMC_CCU4_GCSS_SLICE3_MASK               (4096U)
  95:/opt/XMClib/XMC_Peripheral_Library_v2.1.16/XMCLib/src/xmc_ccu4.c **** 
  96:/opt/XMClib/XMC_Peripheral_Library_v2.1.16/XMCLib/src/xmc_ccu4.c **** /** Macro to check if the clock selected enum passed is valid */
  97:/opt/XMClib/XMC_Peripheral_Library_v2.1.16/XMCLib/src/xmc_ccu4.c **** #define XMC_CCU4_SLICE_CHECK_CLOCK(clock) \
  98:/opt/XMClib/XMC_Peripheral_Library_v2.1.16/XMCLib/src/xmc_ccu4.c ****     ((clock == XMC_CCU4_CLOCK_SCU)        || \
  99:/opt/XMClib/XMC_Peripheral_Library_v2.1.16/XMCLib/src/xmc_ccu4.c ****      (clock == XMC_CCU4_CLOCK_EXTERNAL_A) || \
 100:/opt/XMClib/XMC_Peripheral_Library_v2.1.16/XMCLib/src/xmc_ccu4.c ****      (clock == XMC_CCU4_CLOCK_EXTERNAL_B) || \
 101:/opt/XMClib/XMC_Peripheral_Library_v2.1.16/XMCLib/src/xmc_ccu4.c ****      (clock == XMC_CCU4_CLOCK_EXTERNAL_C))
 102:/opt/XMClib/XMC_Peripheral_Library_v2.1.16/XMCLib/src/xmc_ccu4.c **** 
 103:/opt/XMClib/XMC_Peripheral_Library_v2.1.16/XMCLib/src/xmc_ccu4.c **** /** Macro used to check if the event ID is valid*/
 104:/opt/XMClib/XMC_Peripheral_Library_v2.1.16/XMCLib/src/xmc_ccu4.c **** #define XMC_CCU4_SLICE_CHECK_EVENT_ID(event_id) \
 105:/opt/XMClib/XMC_Peripheral_Library_v2.1.16/XMCLib/src/xmc_ccu4.c ****     ((event_id == XMC_CCU4_SLICE_EVENT_NONE)|| \
 106:/opt/XMClib/XMC_Peripheral_Library_v2.1.16/XMCLib/src/xmc_ccu4.c ****      (event_id == XMC_CCU4_SLICE_EVENT_0)   || \
 107:/opt/XMClib/XMC_Peripheral_Library_v2.1.16/XMCLib/src/xmc_ccu4.c ****      (event_id == XMC_CCU4_SLICE_EVENT_1)   || \
 108:/opt/XMClib/XMC_Peripheral_Library_v2.1.16/XMCLib/src/xmc_ccu4.c ****      (event_id == XMC_CCU4_SLICE_EVENT_2))
 109:/opt/XMClib/XMC_Peripheral_Library_v2.1.16/XMCLib/src/xmc_ccu4.c **** 
 110:/opt/XMClib/XMC_Peripheral_Library_v2.1.16/XMCLib/src/xmc_ccu4.c **** /** Macro used to check if the edge sensitivity is valid*/
 111:/opt/XMClib/XMC_Peripheral_Library_v2.1.16/XMCLib/src/xmc_ccu4.c **** #define XMC_CCU4_SLICE_CHECK_EDGE_SENSITIVITY(edge) \
 112:/opt/XMClib/XMC_Peripheral_Library_v2.1.16/XMCLib/src/xmc_ccu4.c ****     ((edge == XMC_CCU4_SLICE_EVENT_EDGE_SENSITIVITY_NONE)        || \
 113:/opt/XMClib/XMC_Peripheral_Library_v2.1.16/XMCLib/src/xmc_ccu4.c ****      (edge == XMC_CCU4_SLICE_EVENT_EDGE_SENSITIVITY_RISING_EDGE) || \
 114:/opt/XMClib/XMC_Peripheral_Library_v2.1.16/XMCLib/src/xmc_ccu4.c ****      (edge == XMC_CCU4_SLICE_EVENT_EDGE_SENSITIVITY_FALLING_EDGE)|| \
 115:/opt/XMClib/XMC_Peripheral_Library_v2.1.16/XMCLib/src/xmc_ccu4.c ****      (edge == XMC_CCU4_SLICE_EVENT_EDGE_SENSITIVITY_DUAL_EDGE))
 116:/opt/XMClib/XMC_Peripheral_Library_v2.1.16/XMCLib/src/xmc_ccu4.c **** 
 117:/opt/XMClib/XMC_Peripheral_Library_v2.1.16/XMCLib/src/xmc_ccu4.c **** /** Macro used to check if the filter clock cycles are valid */
 118:/opt/XMClib/XMC_Peripheral_Library_v2.1.16/XMCLib/src/xmc_ccu4.c **** #define XMC_CCU4_SLICE_CHECK_EVENT_FILTER(cycles) \
 119:/opt/XMClib/XMC_Peripheral_Library_v2.1.16/XMCLib/src/xmc_ccu4.c ****     ((cycles == XMC_CCU4_SLICE_EVENT_FILTER_DISABLED) || \
 120:/opt/XMClib/XMC_Peripheral_Library_v2.1.16/XMCLib/src/xmc_ccu4.c ****      (cycles == XMC_CCU4_SLICE_EVENT_FILTER_3_CYCLES) || \
 121:/opt/XMClib/XMC_Peripheral_Library_v2.1.16/XMCLib/src/xmc_ccu4.c ****      (cycles == XMC_CCU4_SLICE_EVENT_FILTER_5_CYCLES) || \
 122:/opt/XMClib/XMC_Peripheral_Library_v2.1.16/XMCLib/src/xmc_ccu4.c ****      (cycles == XMC_CCU4_SLICE_EVENT_FILTER_7_CYCLES))
 123:/opt/XMClib/XMC_Peripheral_Library_v2.1.16/XMCLib/src/xmc_ccu4.c **** 
 124:/opt/XMClib/XMC_Peripheral_Library_v2.1.16/XMCLib/src/xmc_ccu4.c **** /** Macro used to check if the Multi-channel input related action is valid*/
 125:/opt/XMClib/XMC_Peripheral_Library_v2.1.16/XMCLib/src/xmc_ccu4.c **** #define XMC_CCU4_SLICE_CHECK_MCS_ACTION(mcs_action) \
 126:/opt/XMClib/XMC_Peripheral_Library_v2.1.16/XMCLib/src/xmc_ccu4.c ****     ((mcs_action == XMC_CCU4_SLICE_MCMS_ACTION_TRANSFER_PR_CR)      || \
 127:/opt/XMClib/XMC_Peripheral_Library_v2.1.16/XMCLib/src/xmc_ccu4.c ****      (mcs_action == XMC_CCU4_SLICE_MCMS_ACTION_TRANSFER_PR_CR_PCMP) || \
 128:/opt/XMClib/XMC_Peripheral_Library_v2.1.16/XMCLib/src/xmc_ccu4.c ****      (mcs_action == XMC_CCU4_SLICE_MCMS_ACTION_TRANSFER_PR_CR_PCMP_DIT))
 129:/opt/XMClib/XMC_Peripheral_Library_v2.1.16/XMCLib/src/xmc_ccu4.c **** 
 130:/opt/XMClib/XMC_Peripheral_Library_v2.1.16/XMCLib/src/xmc_ccu4.c **** /** Macro used to check if the SR line is valid*/
 131:/opt/XMClib/XMC_Peripheral_Library_v2.1.16/XMCLib/src/xmc_ccu4.c **** #define XMC_CCU4_SLICE_CHECK_SR_ID(id) \
 132:/opt/XMClib/XMC_Peripheral_Library_v2.1.16/XMCLib/src/xmc_ccu4.c ****     ((id == XMC_CCU4_SLICE_SR_ID_0) || \
 133:/opt/XMClib/XMC_Peripheral_Library_v2.1.16/XMCLib/src/xmc_ccu4.c ****      (id == XMC_CCU4_SLICE_SR_ID_1) || \
 134:/opt/XMClib/XMC_Peripheral_Library_v2.1.16/XMCLib/src/xmc_ccu4.c ****      (id == XMC_CCU4_SLICE_SR_ID_2) || \
 135:/opt/XMClib/XMC_Peripheral_Library_v2.1.16/XMCLib/src/xmc_ccu4.c ****      (id == XMC_CCU4_SLICE_SR_ID_3))
 136:/opt/XMClib/XMC_Peripheral_Library_v2.1.16/XMCLib/src/xmc_ccu4.c **** 
 137:/opt/XMClib/XMC_Peripheral_Library_v2.1.16/XMCLib/src/xmc_ccu4.c **** /** Macro to check if the end mode enum passed is valid */
 138:/opt/XMClib/XMC_Peripheral_Library_v2.1.16/XMCLib/src/xmc_ccu4.c **** #define XMC_CCU4_CHECK_END_MODE(end_mode) \
 139:/opt/XMClib/XMC_Peripheral_Library_v2.1.16/XMCLib/src/xmc_ccu4.c ****     ((end_mode == XMC_CCU4_SLICE_END_MODE_TIMER_STOP) || \
 140:/opt/XMClib/XMC_Peripheral_Library_v2.1.16/XMCLib/src/xmc_ccu4.c ****      (end_mode == XMC_CCU4_SLICE_END_MODE_TIMER_CLEAR) || \
 141:/opt/XMClib/XMC_Peripheral_Library_v2.1.16/XMCLib/src/xmc_ccu4.c ****      (end_mode == XMC_CCU4_SLICE_END_MODE_TIMER_STOP_CLEAR))
 142:/opt/XMClib/XMC_Peripheral_Library_v2.1.16/XMCLib/src/xmc_ccu4.c **** 
 143:/opt/XMClib/XMC_Peripheral_Library_v2.1.16/XMCLib/src/xmc_ccu4.c **** /**************************************************************************************************
 144:/opt/XMClib/XMC_Peripheral_Library_v2.1.16/XMCLib/src/xmc_ccu4.c ****  * LOCAL ROUTINES
 145:/opt/XMClib/XMC_Peripheral_Library_v2.1.16/XMCLib/src/xmc_ccu4.c ****  **************************************************************************************************
 146:/opt/XMClib/XMC_Peripheral_Library_v2.1.16/XMCLib/src/xmc_ccu4.c **** #if defined(PERIPHERAL_RESET_SUPPORTED)
 147:/opt/XMClib/XMC_Peripheral_Library_v2.1.16/XMCLib/src/xmc_ccu4.c **** __STATIC_INLINE void XMC_CCU4_lAssertReset(const XMC_CCU4_MODULE_t *const module)
 148:/opt/XMClib/XMC_Peripheral_Library_v2.1.16/XMCLib/src/xmc_ccu4.c **** {
 149:/opt/XMClib/XMC_Peripheral_Library_v2.1.16/XMCLib/src/xmc_ccu4.c ****   if (module == CCU40)
 150:/opt/XMClib/XMC_Peripheral_Library_v2.1.16/XMCLib/src/xmc_ccu4.c ****   {
 151:/opt/XMClib/XMC_Peripheral_Library_v2.1.16/XMCLib/src/xmc_ccu4.c ****     XMC_SCU_RESET_AssertPeripheralReset(XMC_SCU_PERIPHERAL_RESET_CCU40);
 152:/opt/XMClib/XMC_Peripheral_Library_v2.1.16/XMCLib/src/xmc_ccu4.c ****   }
 153:/opt/XMClib/XMC_Peripheral_Library_v2.1.16/XMCLib/src/xmc_ccu4.c **** #if defined(CCU41)
 154:/opt/XMClib/XMC_Peripheral_Library_v2.1.16/XMCLib/src/xmc_ccu4.c ****   else if (module == CCU41)
 155:/opt/XMClib/XMC_Peripheral_Library_v2.1.16/XMCLib/src/xmc_ccu4.c ****   {
 156:/opt/XMClib/XMC_Peripheral_Library_v2.1.16/XMCLib/src/xmc_ccu4.c ****     XMC_SCU_RESET_AssertPeripheralReset(XMC_SCU_PERIPHERAL_RESET_CCU41);
 157:/opt/XMClib/XMC_Peripheral_Library_v2.1.16/XMCLib/src/xmc_ccu4.c ****   }
 158:/opt/XMClib/XMC_Peripheral_Library_v2.1.16/XMCLib/src/xmc_ccu4.c **** #endif
 159:/opt/XMClib/XMC_Peripheral_Library_v2.1.16/XMCLib/src/xmc_ccu4.c **** #if defined(CCU42)
 160:/opt/XMClib/XMC_Peripheral_Library_v2.1.16/XMCLib/src/xmc_ccu4.c ****   else if (module == CCU42)
 161:/opt/XMClib/XMC_Peripheral_Library_v2.1.16/XMCLib/src/xmc_ccu4.c ****   {
 162:/opt/XMClib/XMC_Peripheral_Library_v2.1.16/XMCLib/src/xmc_ccu4.c ****     XMC_SCU_RESET_AssertPeripheralReset(XMC_SCU_PERIPHERAL_RESET_CCU42);
 163:/opt/XMClib/XMC_Peripheral_Library_v2.1.16/XMCLib/src/xmc_ccu4.c ****   }
 164:/opt/XMClib/XMC_Peripheral_Library_v2.1.16/XMCLib/src/xmc_ccu4.c **** #endif
 165:/opt/XMClib/XMC_Peripheral_Library_v2.1.16/XMCLib/src/xmc_ccu4.c **** #if defined(CCU43)
 166:/opt/XMClib/XMC_Peripheral_Library_v2.1.16/XMCLib/src/xmc_ccu4.c ****   else if (module == CCU43)
 167:/opt/XMClib/XMC_Peripheral_Library_v2.1.16/XMCLib/src/xmc_ccu4.c ****   {
 168:/opt/XMClib/XMC_Peripheral_Library_v2.1.16/XMCLib/src/xmc_ccu4.c ****     XMC_SCU_RESET_AssertPeripheralReset(XMC_SCU_PERIPHERAL_RESET_CCU43);
 169:/opt/XMClib/XMC_Peripheral_Library_v2.1.16/XMCLib/src/xmc_ccu4.c ****   }
 170:/opt/XMClib/XMC_Peripheral_Library_v2.1.16/XMCLib/src/xmc_ccu4.c **** #endif
 171:/opt/XMClib/XMC_Peripheral_Library_v2.1.16/XMCLib/src/xmc_ccu4.c ****   else
 172:/opt/XMClib/XMC_Peripheral_Library_v2.1.16/XMCLib/src/xmc_ccu4.c ****   {
 173:/opt/XMClib/XMC_Peripheral_Library_v2.1.16/XMCLib/src/xmc_ccu4.c ****     XMC_ASSERT("XMC_CCU4_lAssertReset:Invalid Module Pointer", 0);
 174:/opt/XMClib/XMC_Peripheral_Library_v2.1.16/XMCLib/src/xmc_ccu4.c ****   }
 175:/opt/XMClib/XMC_Peripheral_Library_v2.1.16/XMCLib/src/xmc_ccu4.c **** }
 176:/opt/XMClib/XMC_Peripheral_Library_v2.1.16/XMCLib/src/xmc_ccu4.c **** 
 177:/opt/XMClib/XMC_Peripheral_Library_v2.1.16/XMCLib/src/xmc_ccu4.c **** __STATIC_INLINE void XMC_CCU4_lDeassertReset(const XMC_CCU4_MODULE_t *const module)
 178:/opt/XMClib/XMC_Peripheral_Library_v2.1.16/XMCLib/src/xmc_ccu4.c **** {
 179:/opt/XMClib/XMC_Peripheral_Library_v2.1.16/XMCLib/src/xmc_ccu4.c ****   if (module == CCU40)
 180:/opt/XMClib/XMC_Peripheral_Library_v2.1.16/XMCLib/src/xmc_ccu4.c ****   {
 181:/opt/XMClib/XMC_Peripheral_Library_v2.1.16/XMCLib/src/xmc_ccu4.c ****     XMC_SCU_RESET_DeassertPeripheralReset(XMC_SCU_PERIPHERAL_RESET_CCU40);
 182:/opt/XMClib/XMC_Peripheral_Library_v2.1.16/XMCLib/src/xmc_ccu4.c ****   }
 183:/opt/XMClib/XMC_Peripheral_Library_v2.1.16/XMCLib/src/xmc_ccu4.c **** #if defined(CCU41)
 184:/opt/XMClib/XMC_Peripheral_Library_v2.1.16/XMCLib/src/xmc_ccu4.c ****   else if (module == CCU41)
 185:/opt/XMClib/XMC_Peripheral_Library_v2.1.16/XMCLib/src/xmc_ccu4.c ****   {
 186:/opt/XMClib/XMC_Peripheral_Library_v2.1.16/XMCLib/src/xmc_ccu4.c ****     XMC_SCU_RESET_DeassertPeripheralReset(XMC_SCU_PERIPHERAL_RESET_CCU41);
 187:/opt/XMClib/XMC_Peripheral_Library_v2.1.16/XMCLib/src/xmc_ccu4.c ****   }
 188:/opt/XMClib/XMC_Peripheral_Library_v2.1.16/XMCLib/src/xmc_ccu4.c **** #endif
 189:/opt/XMClib/XMC_Peripheral_Library_v2.1.16/XMCLib/src/xmc_ccu4.c **** #if defined(CCU42)
 190:/opt/XMClib/XMC_Peripheral_Library_v2.1.16/XMCLib/src/xmc_ccu4.c ****   else if (module == CCU42)
 191:/opt/XMClib/XMC_Peripheral_Library_v2.1.16/XMCLib/src/xmc_ccu4.c ****   {
 192:/opt/XMClib/XMC_Peripheral_Library_v2.1.16/XMCLib/src/xmc_ccu4.c ****     XMC_SCU_RESET_DeassertPeripheralReset(XMC_SCU_PERIPHERAL_RESET_CCU42);
 193:/opt/XMClib/XMC_Peripheral_Library_v2.1.16/XMCLib/src/xmc_ccu4.c ****   }
 194:/opt/XMClib/XMC_Peripheral_Library_v2.1.16/XMCLib/src/xmc_ccu4.c **** #endif
 195:/opt/XMClib/XMC_Peripheral_Library_v2.1.16/XMCLib/src/xmc_ccu4.c **** #if defined(CCU43)
 196:/opt/XMClib/XMC_Peripheral_Library_v2.1.16/XMCLib/src/xmc_ccu4.c ****   else if (module == CCU43)
 197:/opt/XMClib/XMC_Peripheral_Library_v2.1.16/XMCLib/src/xmc_ccu4.c ****   {
 198:/opt/XMClib/XMC_Peripheral_Library_v2.1.16/XMCLib/src/xmc_ccu4.c ****     XMC_SCU_RESET_DeassertPeripheralReset(XMC_SCU_PERIPHERAL_RESET_CCU43);
 199:/opt/XMClib/XMC_Peripheral_Library_v2.1.16/XMCLib/src/xmc_ccu4.c ****   }
 200:/opt/XMClib/XMC_Peripheral_Library_v2.1.16/XMCLib/src/xmc_ccu4.c **** #endif
 201:/opt/XMClib/XMC_Peripheral_Library_v2.1.16/XMCLib/src/xmc_ccu4.c ****   else
 202:/opt/XMClib/XMC_Peripheral_Library_v2.1.16/XMCLib/src/xmc_ccu4.c ****   {
 203:/opt/XMClib/XMC_Peripheral_Library_v2.1.16/XMCLib/src/xmc_ccu4.c ****     XMC_ASSERT("XMC_CCU4_lDeassertReset:Invalid Module Pointer", 0);
 204:/opt/XMClib/XMC_Peripheral_Library_v2.1.16/XMCLib/src/xmc_ccu4.c ****   }
 205:/opt/XMClib/XMC_Peripheral_Library_v2.1.16/XMCLib/src/xmc_ccu4.c **** }
 206:/opt/XMClib/XMC_Peripheral_Library_v2.1.16/XMCLib/src/xmc_ccu4.c **** #endif
 207:/opt/XMClib/XMC_Peripheral_Library_v2.1.16/XMCLib/src/xmc_ccu4.c **** 
 208:/opt/XMClib/XMC_Peripheral_Library_v2.1.16/XMCLib/src/xmc_ccu4.c **** #if defined(CLOCK_GATING_SUPPORTED)
 209:/opt/XMClib/XMC_Peripheral_Library_v2.1.16/XMCLib/src/xmc_ccu4.c **** __STATIC_INLINE void XMC_CCU4_lGateClock(const XMC_CCU4_MODULE_t *const module)
 210:/opt/XMClib/XMC_Peripheral_Library_v2.1.16/XMCLib/src/xmc_ccu4.c **** {
 211:/opt/XMClib/XMC_Peripheral_Library_v2.1.16/XMCLib/src/xmc_ccu4.c **** 
 212:/opt/XMClib/XMC_Peripheral_Library_v2.1.16/XMCLib/src/xmc_ccu4.c ****   if (module == CCU40)
 213:/opt/XMClib/XMC_Peripheral_Library_v2.1.16/XMCLib/src/xmc_ccu4.c ****   {
 214:/opt/XMClib/XMC_Peripheral_Library_v2.1.16/XMCLib/src/xmc_ccu4.c ****     XMC_SCU_CLOCK_GatePeripheralClock(XMC_SCU_PERIPHERAL_CLOCK_CCU40);
 215:/opt/XMClib/XMC_Peripheral_Library_v2.1.16/XMCLib/src/xmc_ccu4.c ****   }
 216:/opt/XMClib/XMC_Peripheral_Library_v2.1.16/XMCLib/src/xmc_ccu4.c **** #if defined(CCU41)
 217:/opt/XMClib/XMC_Peripheral_Library_v2.1.16/XMCLib/src/xmc_ccu4.c ****   else if (module == CCU41)
 218:/opt/XMClib/XMC_Peripheral_Library_v2.1.16/XMCLib/src/xmc_ccu4.c ****   {
 219:/opt/XMClib/XMC_Peripheral_Library_v2.1.16/XMCLib/src/xmc_ccu4.c ****     XMC_SCU_CLOCK_GatePeripheralClock(XMC_SCU_PERIPHERAL_CLOCK_CCU41);
 220:/opt/XMClib/XMC_Peripheral_Library_v2.1.16/XMCLib/src/xmc_ccu4.c ****   }
 221:/opt/XMClib/XMC_Peripheral_Library_v2.1.16/XMCLib/src/xmc_ccu4.c **** #endif
 222:/opt/XMClib/XMC_Peripheral_Library_v2.1.16/XMCLib/src/xmc_ccu4.c **** #if defined(CCU42)
 223:/opt/XMClib/XMC_Peripheral_Library_v2.1.16/XMCLib/src/xmc_ccu4.c ****   else if (module == CCU42)
 224:/opt/XMClib/XMC_Peripheral_Library_v2.1.16/XMCLib/src/xmc_ccu4.c ****   {
 225:/opt/XMClib/XMC_Peripheral_Library_v2.1.16/XMCLib/src/xmc_ccu4.c ****     XMC_SCU_CLOCK_GatePeripheralClock(XMC_SCU_PERIPHERAL_CLOCK_CCU42);
 226:/opt/XMClib/XMC_Peripheral_Library_v2.1.16/XMCLib/src/xmc_ccu4.c ****   }
 227:/opt/XMClib/XMC_Peripheral_Library_v2.1.16/XMCLib/src/xmc_ccu4.c **** #endif
 228:/opt/XMClib/XMC_Peripheral_Library_v2.1.16/XMCLib/src/xmc_ccu4.c **** #if defined(CCU43)
 229:/opt/XMClib/XMC_Peripheral_Library_v2.1.16/XMCLib/src/xmc_ccu4.c ****   else if (module == CCU43)
 230:/opt/XMClib/XMC_Peripheral_Library_v2.1.16/XMCLib/src/xmc_ccu4.c ****   {
 231:/opt/XMClib/XMC_Peripheral_Library_v2.1.16/XMCLib/src/xmc_ccu4.c ****     XMC_SCU_CLOCK_GatePeripheralClock(XMC_SCU_PERIPHERAL_CLOCK_CCU43);
 232:/opt/XMClib/XMC_Peripheral_Library_v2.1.16/XMCLib/src/xmc_ccu4.c ****   }
 233:/opt/XMClib/XMC_Peripheral_Library_v2.1.16/XMCLib/src/xmc_ccu4.c **** #endif
 234:/opt/XMClib/XMC_Peripheral_Library_v2.1.16/XMCLib/src/xmc_ccu4.c ****   else
 235:/opt/XMClib/XMC_Peripheral_Library_v2.1.16/XMCLib/src/xmc_ccu4.c ****   {
 236:/opt/XMClib/XMC_Peripheral_Library_v2.1.16/XMCLib/src/xmc_ccu4.c ****     XMC_ASSERT("XMC_CCU4_lGateClock:Invalid Module Pointer", 0);
 237:/opt/XMClib/XMC_Peripheral_Library_v2.1.16/XMCLib/src/xmc_ccu4.c ****   }
 238:/opt/XMClib/XMC_Peripheral_Library_v2.1.16/XMCLib/src/xmc_ccu4.c **** }
 239:/opt/XMClib/XMC_Peripheral_Library_v2.1.16/XMCLib/src/xmc_ccu4.c **** 
 240:/opt/XMClib/XMC_Peripheral_Library_v2.1.16/XMCLib/src/xmc_ccu4.c **** __STATIC_INLINE void XMC_CCU4_lUngateClock(const XMC_CCU4_MODULE_t *const module)
 241:/opt/XMClib/XMC_Peripheral_Library_v2.1.16/XMCLib/src/xmc_ccu4.c **** {
 242:/opt/XMClib/XMC_Peripheral_Library_v2.1.16/XMCLib/src/xmc_ccu4.c ****   if (module == CCU40)
 243:/opt/XMClib/XMC_Peripheral_Library_v2.1.16/XMCLib/src/xmc_ccu4.c ****   {
 244:/opt/XMClib/XMC_Peripheral_Library_v2.1.16/XMCLib/src/xmc_ccu4.c ****     XMC_SCU_CLOCK_UngatePeripheralClock(XMC_SCU_PERIPHERAL_CLOCK_CCU40);
 245:/opt/XMClib/XMC_Peripheral_Library_v2.1.16/XMCLib/src/xmc_ccu4.c ****   }
 246:/opt/XMClib/XMC_Peripheral_Library_v2.1.16/XMCLib/src/xmc_ccu4.c **** #if defined(CCU41)
 247:/opt/XMClib/XMC_Peripheral_Library_v2.1.16/XMCLib/src/xmc_ccu4.c ****   else if (module == CCU41)
 248:/opt/XMClib/XMC_Peripheral_Library_v2.1.16/XMCLib/src/xmc_ccu4.c ****   {
 249:/opt/XMClib/XMC_Peripheral_Library_v2.1.16/XMCLib/src/xmc_ccu4.c ****     XMC_SCU_CLOCK_UngatePeripheralClock(XMC_SCU_PERIPHERAL_CLOCK_CCU41);
 250:/opt/XMClib/XMC_Peripheral_Library_v2.1.16/XMCLib/src/xmc_ccu4.c ****   }
 251:/opt/XMClib/XMC_Peripheral_Library_v2.1.16/XMCLib/src/xmc_ccu4.c **** #endif
 252:/opt/XMClib/XMC_Peripheral_Library_v2.1.16/XMCLib/src/xmc_ccu4.c **** #if defined(CCU42)
 253:/opt/XMClib/XMC_Peripheral_Library_v2.1.16/XMCLib/src/xmc_ccu4.c ****   else if (module == CCU42)
 254:/opt/XMClib/XMC_Peripheral_Library_v2.1.16/XMCLib/src/xmc_ccu4.c ****   {
 255:/opt/XMClib/XMC_Peripheral_Library_v2.1.16/XMCLib/src/xmc_ccu4.c ****     XMC_SCU_CLOCK_UngatePeripheralClock(XMC_SCU_PERIPHERAL_CLOCK_CCU42);
 256:/opt/XMClib/XMC_Peripheral_Library_v2.1.16/XMCLib/src/xmc_ccu4.c ****   }
 257:/opt/XMClib/XMC_Peripheral_Library_v2.1.16/XMCLib/src/xmc_ccu4.c **** #endif
 258:/opt/XMClib/XMC_Peripheral_Library_v2.1.16/XMCLib/src/xmc_ccu4.c **** #if defined(CCU43)
 259:/opt/XMClib/XMC_Peripheral_Library_v2.1.16/XMCLib/src/xmc_ccu4.c ****   else if (module == CCU43)
 260:/opt/XMClib/XMC_Peripheral_Library_v2.1.16/XMCLib/src/xmc_ccu4.c ****   {
 261:/opt/XMClib/XMC_Peripheral_Library_v2.1.16/XMCLib/src/xmc_ccu4.c ****     XMC_SCU_CLOCK_UngatePeripheralClock(XMC_SCU_PERIPHERAL_CLOCK_CCU43);
 262:/opt/XMClib/XMC_Peripheral_Library_v2.1.16/XMCLib/src/xmc_ccu4.c ****   }
 263:/opt/XMClib/XMC_Peripheral_Library_v2.1.16/XMCLib/src/xmc_ccu4.c **** #endif
 264:/opt/XMClib/XMC_Peripheral_Library_v2.1.16/XMCLib/src/xmc_ccu4.c ****   else
 265:/opt/XMClib/XMC_Peripheral_Library_v2.1.16/XMCLib/src/xmc_ccu4.c ****   {
 266:/opt/XMClib/XMC_Peripheral_Library_v2.1.16/XMCLib/src/xmc_ccu4.c ****     XMC_ASSERT("XMC_CCU4_lUngateClock:Invalid Module Pointer", 0);
 267:/opt/XMClib/XMC_Peripheral_Library_v2.1.16/XMCLib/src/xmc_ccu4.c ****   }
 268:/opt/XMClib/XMC_Peripheral_Library_v2.1.16/XMCLib/src/xmc_ccu4.c **** }
 269:/opt/XMClib/XMC_Peripheral_Library_v2.1.16/XMCLib/src/xmc_ccu4.c **** #endif
 270:/opt/XMClib/XMC_Peripheral_Library_v2.1.16/XMCLib/src/xmc_ccu4.c **** 
 271:/opt/XMClib/XMC_Peripheral_Library_v2.1.16/XMCLib/src/xmc_ccu4.c **** #if defined (XMC_ASSERT_ENABLE)
 272:/opt/XMClib/XMC_Peripheral_Library_v2.1.16/XMCLib/src/xmc_ccu4.c **** __STATIC_INLINE bool XMC_CCU4_SLICE_IsInputvalid(XMC_CCU4_SLICE_INPUT_t input)
 273:/opt/XMClib/XMC_Peripheral_Library_v2.1.16/XMCLib/src/xmc_ccu4.c **** {
 274:/opt/XMClib/XMC_Peripheral_Library_v2.1.16/XMCLib/src/xmc_ccu4.c **** #if (UC_SERIES == XMC14)
 275:/opt/XMClib/XMC_Peripheral_Library_v2.1.16/XMCLib/src/xmc_ccu4.c ****   return (input < 48U);
 276:/opt/XMClib/XMC_Peripheral_Library_v2.1.16/XMCLib/src/xmc_ccu4.c **** #else
 277:/opt/XMClib/XMC_Peripheral_Library_v2.1.16/XMCLib/src/xmc_ccu4.c ****   return (input < 16U);
 278:/opt/XMClib/XMC_Peripheral_Library_v2.1.16/XMCLib/src/xmc_ccu4.c **** #endif
 279:/opt/XMClib/XMC_Peripheral_Library_v2.1.16/XMCLib/src/xmc_ccu4.c **** }
 280:/opt/XMClib/XMC_Peripheral_Library_v2.1.16/XMCLib/src/xmc_ccu4.c **** #endif
 281:/opt/XMClib/XMC_Peripheral_Library_v2.1.16/XMCLib/src/xmc_ccu4.c **** /**************************************************************************************************
 282:/opt/XMClib/XMC_Peripheral_Library_v2.1.16/XMCLib/src/xmc_ccu4.c ****  * API IMPLEMENTATION
 283:/opt/XMClib/XMC_Peripheral_Library_v2.1.16/XMCLib/src/xmc_ccu4.c ****  **************************************************************************************************
 284:/opt/XMClib/XMC_Peripheral_Library_v2.1.16/XMCLib/src/xmc_ccu4.c **** 
 285:/opt/XMClib/XMC_Peripheral_Library_v2.1.16/XMCLib/src/xmc_ccu4.c **** void XMC_CCU4_EnableModule(XMC_CCU4_MODULE_t *const module)
 286:/opt/XMClib/XMC_Peripheral_Library_v2.1.16/XMCLib/src/xmc_ccu4.c **** {
  29              		.loc 1 286 1 view -0
  30              		.cfi_startproc
  31              		@ args = 0, pretend = 0, frame = 0
  32              		@ frame_needed = 0, uses_anonymous_args = 0
  33              		.loc 1 286 1 is_stmt 0 view .LVU1
  34 0000 10B5     		push	{r4, lr}
  35              	.LCFI0:
  36              		.cfi_def_cfa_offset 8
  37              		.cfi_offset 4, -8
  38              		.cfi_offset 14, -4
  39 0002 0446     		mov	r4, r0
 287:/opt/XMClib/XMC_Peripheral_Library_v2.1.16/XMCLib/src/xmc_ccu4.c ****   XMC_ASSERT("XMC_CCU4_EnableModule:Invalid Module Pointer", XMC_CCU4_IsValidModule(module));
  40              		.loc 1 287 3 is_stmt 1 view .LVU2
  41              		.loc 1 287 93 view .LVU3
 288:/opt/XMClib/XMC_Peripheral_Library_v2.1.16/XMCLib/src/xmc_ccu4.c **** 
 289:/opt/XMClib/XMC_Peripheral_Library_v2.1.16/XMCLib/src/xmc_ccu4.c **** #if UC_FAMILY == XMC4
 290:/opt/XMClib/XMC_Peripheral_Library_v2.1.16/XMCLib/src/xmc_ccu4.c ****   /* Enable CCU4 module clock */
 291:/opt/XMClib/XMC_Peripheral_Library_v2.1.16/XMCLib/src/xmc_ccu4.c ****   XMC_SCU_CLOCK_EnableClock(XMC_SCU_CLOCK_CCU);
  42              		.loc 1 291 3 view .LVU4
  43 0004 1020     		movs	r0, #16
  44              	.LVL1:
  45              		.loc 1 291 3 is_stmt 0 view .LVU5
  46 0006 FFF7FEFF 		bl	XMC_SCU_CLOCK_EnableClock
  47              	.LVL2:
 292:/opt/XMClib/XMC_Peripheral_Library_v2.1.16/XMCLib/src/xmc_ccu4.c **** #endif
 293:/opt/XMClib/XMC_Peripheral_Library_v2.1.16/XMCLib/src/xmc_ccu4.c ****   
 294:/opt/XMClib/XMC_Peripheral_Library_v2.1.16/XMCLib/src/xmc_ccu4.c **** #if defined(CLOCK_GATING_SUPPORTED)
 295:/opt/XMClib/XMC_Peripheral_Library_v2.1.16/XMCLib/src/xmc_ccu4.c ****   XMC_CCU4_lUngateClock(module);
 296:/opt/XMClib/XMC_Peripheral_Library_v2.1.16/XMCLib/src/xmc_ccu4.c **** #endif
 297:/opt/XMClib/XMC_Peripheral_Library_v2.1.16/XMCLib/src/xmc_ccu4.c **** 
 298:/opt/XMClib/XMC_Peripheral_Library_v2.1.16/XMCLib/src/xmc_ccu4.c **** #if defined(PERIPHERAL_RESET_SUPPORTED)
 299:/opt/XMClib/XMC_Peripheral_Library_v2.1.16/XMCLib/src/xmc_ccu4.c ****   XMC_CCU4_lDeassertReset(module);
  48              		.loc 1 299 3 is_stmt 1 view .LVU6
  49              	.LBB8:
  50              	.LBI8:
 177:/opt/XMClib/XMC_Peripheral_Library_v2.1.16/XMCLib/src/xmc_ccu4.c **** {
  51              		.loc 1 177 22 view .LVU7
  52              	.LBB9:
 179:/opt/XMClib/XMC_Peripheral_Library_v2.1.16/XMCLib/src/xmc_ccu4.c ****   {
  53              		.loc 1 179 3 view .LVU8
 179:/opt/XMClib/XMC_Peripheral_Library_v2.1.16/XMCLib/src/xmc_ccu4.c ****   {
  54              		.loc 1 179 6 is_stmt 0 view .LVU9
  55 000a 0E4B     		ldr	r3, .L11
  56 000c 9C42     		cmp	r4, r3
  57 000e 09D0     		beq	.L7
 184:/opt/XMClib/XMC_Peripheral_Library_v2.1.16/XMCLib/src/xmc_ccu4.c ****   {
  58              		.loc 1 184 8 is_stmt 1 view .LVU10
 184:/opt/XMClib/XMC_Peripheral_Library_v2.1.16/XMCLib/src/xmc_ccu4.c ****   {
  59              		.loc 1 184 11 is_stmt 0 view .LVU11
  60 0010 0D4B     		ldr	r3, .L11+4
  61 0012 9C42     		cmp	r4, r3
  62 0014 0AD0     		beq	.L8
 190:/opt/XMClib/XMC_Peripheral_Library_v2.1.16/XMCLib/src/xmc_ccu4.c ****   {
  63              		.loc 1 190 8 is_stmt 1 view .LVU12
 190:/opt/XMClib/XMC_Peripheral_Library_v2.1.16/XMCLib/src/xmc_ccu4.c ****   {
  64              		.loc 1 190 11 is_stmt 0 view .LVU13
  65 0016 0D4B     		ldr	r3, .L11+8
  66 0018 9C42     		cmp	r4, r3
  67 001a 0BD0     		beq	.L9
 196:/opt/XMClib/XMC_Peripheral_Library_v2.1.16/XMCLib/src/xmc_ccu4.c ****   {
  68              		.loc 1 196 8 is_stmt 1 view .LVU14
 196:/opt/XMClib/XMC_Peripheral_Library_v2.1.16/XMCLib/src/xmc_ccu4.c ****   {
  69              		.loc 1 196 11 is_stmt 0 view .LVU15
  70 001c 0C4B     		ldr	r3, .L11+12
  71 001e 9C42     		cmp	r4, r3
  72 0020 0CD0     		beq	.L10
  73              	.LVL3:
  74              	.L1:
 196:/opt/XMClib/XMC_Peripheral_Library_v2.1.16/XMCLib/src/xmc_ccu4.c ****   {
  75              		.loc 1 196 11 view .LVU16
  76              	.LBE9:
  77              	.LBE8:
 300:/opt/XMClib/XMC_Peripheral_Library_v2.1.16/XMCLib/src/xmc_ccu4.c **** #endif
 301:/opt/XMClib/XMC_Peripheral_Library_v2.1.16/XMCLib/src/xmc_ccu4.c **** }
  78              		.loc 1 301 1 view .LVU17
  79 0022 10BD     		pop	{r4, pc}
  80              	.LVL4:
  81              	.L7:
  82              	.LBB11:
  83              	.LBB10:
 181:/opt/XMClib/XMC_Peripheral_Library_v2.1.16/XMCLib/src/xmc_ccu4.c ****   }
  84              		.loc 1 181 5 is_stmt 1 view .LVU18
  85 0024 0420     		movs	r0, #4
  86 0026 FFF7FEFF 		bl	XMC_SCU_RESET_DeassertPeripheralReset
  87              	.LVL5:
  88 002a FAE7     		b	.L1
  89              	.L8:
 186:/opt/XMClib/XMC_Peripheral_Library_v2.1.16/XMCLib/src/xmc_ccu4.c ****   }
  90              		.loc 1 186 5 view .LVU19
  91 002c 0820     		movs	r0, #8
  92 002e FFF7FEFF 		bl	XMC_SCU_RESET_DeassertPeripheralReset
  93              	.LVL6:
  94 0032 F6E7     		b	.L1
  95              	.L9:
 192:/opt/XMClib/XMC_Peripheral_Library_v2.1.16/XMCLib/src/xmc_ccu4.c ****   }
  96              		.loc 1 192 5 view .LVU20
  97 0034 1020     		movs	r0, #16
  98 0036 FFF7FEFF 		bl	XMC_SCU_RESET_DeassertPeripheralReset
  99              	.LVL7:
 100 003a F2E7     		b	.L1
 101              	.L10:
 198:/opt/XMClib/XMC_Peripheral_Library_v2.1.16/XMCLib/src/xmc_ccu4.c ****   }
 102              		.loc 1 198 5 view .LVU21
 103 003c 0548     		ldr	r0, .L11+16
 104 003e FFF7FEFF 		bl	XMC_SCU_RESET_DeassertPeripheralReset
 105              	.LVL8:
 203:/opt/XMClib/XMC_Peripheral_Library_v2.1.16/XMCLib/src/xmc_ccu4.c ****   }
 106              		.loc 1 203 5 view .LVU22
 203:/opt/XMClib/XMC_Peripheral_Library_v2.1.16/XMCLib/src/xmc_ccu4.c ****   }
 107              		.loc 1 203 68 view .LVU23
 203:/opt/XMClib/XMC_Peripheral_Library_v2.1.16/XMCLib/src/xmc_ccu4.c ****   }
 108              		.loc 1 203 68 is_stmt 0 view .LVU24
 109              	.LBE10:
 110              	.LBE11:
 111              		.loc 1 301 1 view .LVU25
 112 0042 EEE7     		b	.L1
 113              	.L12:
 114              		.align	2
 115              	.L11:
 116 0044 00C00040 		.word	1073790976
 117 0048 00000140 		.word	1073807360
 118 004c 00400140 		.word	1073823744
 119 0050 00400048 		.word	1207975936
 120 0054 01000010 		.word	268435457
 121              		.cfi_endproc
 122              	.LFE205:
 124              		.section	.text.XMC_CCU4_DisableModule,"ax",%progbits
 125              		.align	1
 126              		.global	XMC_CCU4_DisableModule
 127              		.syntax unified
 128              		.thumb
 129              		.thumb_func
 130              		.fpu fpv4-sp-d16
 132              	XMC_CCU4_DisableModule:
 133              	.LVL9:
 134              	.LFB206:
 302:/opt/XMClib/XMC_Peripheral_Library_v2.1.16/XMCLib/src/xmc_ccu4.c **** 
 303:/opt/XMClib/XMC_Peripheral_Library_v2.1.16/XMCLib/src/xmc_ccu4.c **** void XMC_CCU4_DisableModule(XMC_CCU4_MODULE_t *const module)
 304:/opt/XMClib/XMC_Peripheral_Library_v2.1.16/XMCLib/src/xmc_ccu4.c **** {
 135              		.loc 1 304 1 is_stmt 1 view -0
 136              		.cfi_startproc
 137              		@ args = 0, pretend = 0, frame = 0
 138              		@ frame_needed = 0, uses_anonymous_args = 0
 139              		.loc 1 304 1 is_stmt 0 view .LVU27
 140 0000 08B5     		push	{r3, lr}
 141              	.LCFI1:
 142              		.cfi_def_cfa_offset 8
 143              		.cfi_offset 3, -8
 144              		.cfi_offset 14, -4
 305:/opt/XMClib/XMC_Peripheral_Library_v2.1.16/XMCLib/src/xmc_ccu4.c ****   XMC_ASSERT("XMC_CCU4_DisableModule:Invalid Module Pointer", XMC_CCU4_IsValidModule(module));
 145              		.loc 1 305 3 is_stmt 1 view .LVU28
 146              		.loc 1 305 94 view .LVU29
 306:/opt/XMClib/XMC_Peripheral_Library_v2.1.16/XMCLib/src/xmc_ccu4.c **** 
 307:/opt/XMClib/XMC_Peripheral_Library_v2.1.16/XMCLib/src/xmc_ccu4.c **** #if defined(PERIPHERAL_RESET_SUPPORTED)
 308:/opt/XMClib/XMC_Peripheral_Library_v2.1.16/XMCLib/src/xmc_ccu4.c ****   XMC_CCU4_lAssertReset(module);
 147              		.loc 1 308 3 view .LVU30
 148              	.LVL10:
 149              	.LBB14:
 150              	.LBI14:
 147:/opt/XMClib/XMC_Peripheral_Library_v2.1.16/XMCLib/src/xmc_ccu4.c **** {
 151              		.loc 1 147 22 view .LVU31
 152              	.LBB15:
 149:/opt/XMClib/XMC_Peripheral_Library_v2.1.16/XMCLib/src/xmc_ccu4.c ****   {
 153              		.loc 1 149 3 view .LVU32
 149:/opt/XMClib/XMC_Peripheral_Library_v2.1.16/XMCLib/src/xmc_ccu4.c ****   {
 154              		.loc 1 149 6 is_stmt 0 view .LVU33
 155 0002 0E4B     		ldr	r3, .L23
 156 0004 9842     		cmp	r0, r3
 157 0006 09D0     		beq	.L19
 154:/opt/XMClib/XMC_Peripheral_Library_v2.1.16/XMCLib/src/xmc_ccu4.c ****   {
 158              		.loc 1 154 8 is_stmt 1 view .LVU34
 154:/opt/XMClib/XMC_Peripheral_Library_v2.1.16/XMCLib/src/xmc_ccu4.c ****   {
 159              		.loc 1 154 11 is_stmt 0 view .LVU35
 160 0008 0D4B     		ldr	r3, .L23+4
 161 000a 9842     		cmp	r0, r3
 162 000c 0AD0     		beq	.L20
 160:/opt/XMClib/XMC_Peripheral_Library_v2.1.16/XMCLib/src/xmc_ccu4.c ****   {
 163              		.loc 1 160 8 is_stmt 1 view .LVU36
 160:/opt/XMClib/XMC_Peripheral_Library_v2.1.16/XMCLib/src/xmc_ccu4.c ****   {
 164              		.loc 1 160 11 is_stmt 0 view .LVU37
 165 000e 0D4B     		ldr	r3, .L23+8
 166 0010 9842     		cmp	r0, r3
 167 0012 0BD0     		beq	.L21
 166:/opt/XMClib/XMC_Peripheral_Library_v2.1.16/XMCLib/src/xmc_ccu4.c ****   {
 168              		.loc 1 166 8 is_stmt 1 view .LVU38
 166:/opt/XMClib/XMC_Peripheral_Library_v2.1.16/XMCLib/src/xmc_ccu4.c ****   {
 169              		.loc 1 166 11 is_stmt 0 view .LVU39
 170 0014 0C4B     		ldr	r3, .L23+12
 171 0016 9842     		cmp	r0, r3
 172 0018 0CD0     		beq	.L22
 173              	.LVL11:
 174              	.L13:
 166:/opt/XMClib/XMC_Peripheral_Library_v2.1.16/XMCLib/src/xmc_ccu4.c ****   {
 175              		.loc 1 166 11 view .LVU40
 176              	.LBE15:
 177              	.LBE14:
 309:/opt/XMClib/XMC_Peripheral_Library_v2.1.16/XMCLib/src/xmc_ccu4.c **** #endif
 310:/opt/XMClib/XMC_Peripheral_Library_v2.1.16/XMCLib/src/xmc_ccu4.c ****   
 311:/opt/XMClib/XMC_Peripheral_Library_v2.1.16/XMCLib/src/xmc_ccu4.c **** #if defined(CLOCK_GATING_SUPPORTED)
 312:/opt/XMClib/XMC_Peripheral_Library_v2.1.16/XMCLib/src/xmc_ccu4.c ****   XMC_CCU4_lGateClock(module);
 313:/opt/XMClib/XMC_Peripheral_Library_v2.1.16/XMCLib/src/xmc_ccu4.c **** #endif
 314:/opt/XMClib/XMC_Peripheral_Library_v2.1.16/XMCLib/src/xmc_ccu4.c **** }
 178              		.loc 1 314 1 view .LVU41
 179 001a 08BD     		pop	{r3, pc}
 180              	.LVL12:
 181              	.L19:
 182              	.LBB17:
 183              	.LBB16:
 151:/opt/XMClib/XMC_Peripheral_Library_v2.1.16/XMCLib/src/xmc_ccu4.c ****   }
 184              		.loc 1 151 5 is_stmt 1 view .LVU42
 185 001c 0420     		movs	r0, #4
 186              	.LVL13:
 151:/opt/XMClib/XMC_Peripheral_Library_v2.1.16/XMCLib/src/xmc_ccu4.c ****   }
 187              		.loc 1 151 5 is_stmt 0 view .LVU43
 188 001e FFF7FEFF 		bl	XMC_SCU_RESET_AssertPeripheralReset
 189              	.LVL14:
 190 0022 FAE7     		b	.L13
 191              	.LVL15:
 192              	.L20:
 156:/opt/XMClib/XMC_Peripheral_Library_v2.1.16/XMCLib/src/xmc_ccu4.c ****   }
 193              		.loc 1 156 5 is_stmt 1 view .LVU44
 194 0024 0820     		movs	r0, #8
 195              	.LVL16:
 156:/opt/XMClib/XMC_Peripheral_Library_v2.1.16/XMCLib/src/xmc_ccu4.c ****   }
 196              		.loc 1 156 5 is_stmt 0 view .LVU45
 197 0026 FFF7FEFF 		bl	XMC_SCU_RESET_AssertPeripheralReset
 198              	.LVL17:
 199 002a F6E7     		b	.L13
 200              	.LVL18:
 201              	.L21:
 162:/opt/XMClib/XMC_Peripheral_Library_v2.1.16/XMCLib/src/xmc_ccu4.c ****   }
 202              		.loc 1 162 5 is_stmt 1 view .LVU46
 203 002c 1020     		movs	r0, #16
 204              	.LVL19:
 162:/opt/XMClib/XMC_Peripheral_Library_v2.1.16/XMCLib/src/xmc_ccu4.c ****   }
 205              		.loc 1 162 5 is_stmt 0 view .LVU47
 206 002e FFF7FEFF 		bl	XMC_SCU_RESET_AssertPeripheralReset
 207              	.LVL20:
 208 0032 F2E7     		b	.L13
 209              	.LVL21:
 210              	.L22:
 168:/opt/XMClib/XMC_Peripheral_Library_v2.1.16/XMCLib/src/xmc_ccu4.c ****   }
 211              		.loc 1 168 5 is_stmt 1 view .LVU48
 212 0034 0548     		ldr	r0, .L23+16
 213              	.LVL22:
 168:/opt/XMClib/XMC_Peripheral_Library_v2.1.16/XMCLib/src/xmc_ccu4.c ****   }
 214              		.loc 1 168 5 is_stmt 0 view .LVU49
 215 0036 FFF7FEFF 		bl	XMC_SCU_RESET_AssertPeripheralReset
 216              	.LVL23:
 173:/opt/XMClib/XMC_Peripheral_Library_v2.1.16/XMCLib/src/xmc_ccu4.c ****   }
 217              		.loc 1 173 5 is_stmt 1 view .LVU50
 173:/opt/XMClib/XMC_Peripheral_Library_v2.1.16/XMCLib/src/xmc_ccu4.c ****   }
 218              		.loc 1 173 66 view .LVU51
 173:/opt/XMClib/XMC_Peripheral_Library_v2.1.16/XMCLib/src/xmc_ccu4.c ****   }
 219              		.loc 1 173 66 is_stmt 0 view .LVU52
 220              	.LBE16:
 221              	.LBE17:
 222              		.loc 1 314 1 view .LVU53
 223 003a EEE7     		b	.L13
 224              	.L24:
 225              		.align	2
 226              	.L23:
 227 003c 00C00040 		.word	1073790976
 228 0040 00000140 		.word	1073807360
 229 0044 00400140 		.word	1073823744
 230 0048 00400048 		.word	1207975936
 231 004c 01000010 		.word	268435457
 232              		.cfi_endproc
 233              	.LFE206:
 235              		.section	.text.XMC_CCU4_Init,"ax",%progbits
 236              		.align	1
 237              		.global	XMC_CCU4_Init
 238              		.syntax unified
 239              		.thumb
 240              		.thumb_func
 241              		.fpu fpv4-sp-d16
 243              	XMC_CCU4_Init:
 244              	.LVL24:
 245              	.LFB207:
 315:/opt/XMClib/XMC_Peripheral_Library_v2.1.16/XMCLib/src/xmc_ccu4.c **** 
 316:/opt/XMClib/XMC_Peripheral_Library_v2.1.16/XMCLib/src/xmc_ccu4.c **** /* API to initialize CCU4 global resources  */
 317:/opt/XMClib/XMC_Peripheral_Library_v2.1.16/XMCLib/src/xmc_ccu4.c **** void XMC_CCU4_Init(XMC_CCU4_MODULE_t *const module, const XMC_CCU4_SLICE_MCMS_ACTION_t mcs_action)
 318:/opt/XMClib/XMC_Peripheral_Library_v2.1.16/XMCLib/src/xmc_ccu4.c **** {
 246              		.loc 1 318 1 is_stmt 1 view -0
 247              		.cfi_startproc
 248              		@ args = 0, pretend = 0, frame = 0
 249              		@ frame_needed = 0, uses_anonymous_args = 0
 250              		.loc 1 318 1 is_stmt 0 view .LVU55
 251 0000 38B5     		push	{r3, r4, r5, lr}
 252              	.LCFI2:
 253              		.cfi_def_cfa_offset 16
 254              		.cfi_offset 3, -16
 255              		.cfi_offset 4, -12
 256              		.cfi_offset 5, -8
 257              		.cfi_offset 14, -4
 258 0002 0446     		mov	r4, r0
 259 0004 0D46     		mov	r5, r1
 319:/opt/XMClib/XMC_Peripheral_Library_v2.1.16/XMCLib/src/xmc_ccu4.c ****   uint32_t gctrl;
 260              		.loc 1 319 3 is_stmt 1 view .LVU56
 320:/opt/XMClib/XMC_Peripheral_Library_v2.1.16/XMCLib/src/xmc_ccu4.c ****   
 321:/opt/XMClib/XMC_Peripheral_Library_v2.1.16/XMCLib/src/xmc_ccu4.c ****   XMC_ASSERT("XMC_CCU4_Init:Invalid module pointer", XMC_CCU4_IsValidModule(module));
 261              		.loc 1 321 3 view .LVU57
 262              		.loc 1 321 85 view .LVU58
 322:/opt/XMClib/XMC_Peripheral_Library_v2.1.16/XMCLib/src/xmc_ccu4.c ****   XMC_ASSERT("XMC_CCU4_Init:Invalid mcs action", XMC_CCU4_SLICE_CHECK_MCS_ACTION(mcs_action));
 263              		.loc 1 322 3 view .LVU59
 264              		.loc 1 322 94 view .LVU60
 323:/opt/XMClib/XMC_Peripheral_Library_v2.1.16/XMCLib/src/xmc_ccu4.c **** 
 324:/opt/XMClib/XMC_Peripheral_Library_v2.1.16/XMCLib/src/xmc_ccu4.c ****   /* Enable CCU4 module */
 325:/opt/XMClib/XMC_Peripheral_Library_v2.1.16/XMCLib/src/xmc_ccu4.c ****   XMC_CCU4_EnableModule(module);
 265              		.loc 1 325 3 view .LVU61
 266 0006 FFF7FEFF 		bl	XMC_CCU4_EnableModule
 267              	.LVL25:
 326:/opt/XMClib/XMC_Peripheral_Library_v2.1.16/XMCLib/src/xmc_ccu4.c ****   /* Start the prescaler */
 327:/opt/XMClib/XMC_Peripheral_Library_v2.1.16/XMCLib/src/xmc_ccu4.c ****   XMC_CCU4_StartPrescaler(module);
 268              		.loc 1 327 3 view .LVU62
 269              	.LBB18:
 270              	.LBI18:
 271              		.file 2 "/opt/XMClib/XMC_Peripheral_Library_v2.1.16/XMCLib/inc/xmc_ccu4.h"
   1:/opt/XMClib/XMC_Peripheral_Library_v2.1.16/XMCLib/inc/xmc_ccu4.h **** /**
   2:/opt/XMClib/XMC_Peripheral_Library_v2.1.16/XMCLib/inc/xmc_ccu4.h ****  * @file xmc_ccu4.h
   3:/opt/XMClib/XMC_Peripheral_Library_v2.1.16/XMCLib/inc/xmc_ccu4.h ****  * @date 2017-04-27
   4:/opt/XMClib/XMC_Peripheral_Library_v2.1.16/XMCLib/inc/xmc_ccu4.h ****  *
   5:/opt/XMClib/XMC_Peripheral_Library_v2.1.16/XMCLib/inc/xmc_ccu4.h ****  * @cond
   6:/opt/XMClib/XMC_Peripheral_Library_v2.1.16/XMCLib/inc/xmc_ccu4.h ****  **************************************************************************************************
   7:/opt/XMClib/XMC_Peripheral_Library_v2.1.16/XMCLib/inc/xmc_ccu4.h ****  * XMClib v2.1.16 - XMC Peripheral Driver Library 
   8:/opt/XMClib/XMC_Peripheral_Library_v2.1.16/XMCLib/inc/xmc_ccu4.h ****  *
   9:/opt/XMClib/XMC_Peripheral_Library_v2.1.16/XMCLib/inc/xmc_ccu4.h ****  * Copyright (c) 2015-2017, Infineon Technologies AG
  10:/opt/XMClib/XMC_Peripheral_Library_v2.1.16/XMCLib/inc/xmc_ccu4.h ****  * All rights reserved.                        
  11:/opt/XMClib/XMC_Peripheral_Library_v2.1.16/XMCLib/inc/xmc_ccu4.h ****  *                                             
  12:/opt/XMClib/XMC_Peripheral_Library_v2.1.16/XMCLib/inc/xmc_ccu4.h ****  * Redistribution and use in source and binary forms, with or without modification,are permitted pr
  13:/opt/XMClib/XMC_Peripheral_Library_v2.1.16/XMCLib/inc/xmc_ccu4.h ****  * following conditions are met:   
  14:/opt/XMClib/XMC_Peripheral_Library_v2.1.16/XMCLib/inc/xmc_ccu4.h ****  *                                                                              
  15:/opt/XMClib/XMC_Peripheral_Library_v2.1.16/XMCLib/inc/xmc_ccu4.h ****  * Redistributions of source code must retain the above copyright notice, this list of conditions a
  16:/opt/XMClib/XMC_Peripheral_Library_v2.1.16/XMCLib/inc/xmc_ccu4.h ****  * disclaimer.                        
  17:/opt/XMClib/XMC_Peripheral_Library_v2.1.16/XMCLib/inc/xmc_ccu4.h ****  * 
  18:/opt/XMClib/XMC_Peripheral_Library_v2.1.16/XMCLib/inc/xmc_ccu4.h ****  * Redistributions in binary form must reproduce the above copyright notice, this list of condition
  19:/opt/XMClib/XMC_Peripheral_Library_v2.1.16/XMCLib/inc/xmc_ccu4.h ****  * disclaimer in the documentation and/or other materials provided with the distribution.          
  20:/opt/XMClib/XMC_Peripheral_Library_v2.1.16/XMCLib/inc/xmc_ccu4.h ****  * 
  21:/opt/XMClib/XMC_Peripheral_Library_v2.1.16/XMCLib/inc/xmc_ccu4.h ****  * Neither the name of the copyright holders nor the names of its contributors may be used to endor
  22:/opt/XMClib/XMC_Peripheral_Library_v2.1.16/XMCLib/inc/xmc_ccu4.h ****  * products derived from this software without specific prior written permission.                  
  23:/opt/XMClib/XMC_Peripheral_Library_v2.1.16/XMCLib/inc/xmc_ccu4.h ****  *                                                                              
  24:/opt/XMClib/XMC_Peripheral_Library_v2.1.16/XMCLib/inc/xmc_ccu4.h ****  * THIS SOFTWARE IS PROVIDED BY THE COPYRIGHT HOLDERS AND CONTRIBUTORS "AS IS" AND ANY EXPRESS OR I
  25:/opt/XMClib/XMC_Peripheral_Library_v2.1.16/XMCLib/inc/xmc_ccu4.h ****  * INCLUDING, BUT NOT LIMITED TO, THE IMPLIED WARRANTIES OF MERCHANTABILITY AND FITNESS FOR A PARTI
  26:/opt/XMClib/XMC_Peripheral_Library_v2.1.16/XMCLib/inc/xmc_ccu4.h ****  * DISCLAIMED. IN NO EVENT SHALL THE COPYRIGHT HOLDER OR CONTRIBUTORS BE LIABLE  FOR ANY DIRECT, IN
  27:/opt/XMClib/XMC_Peripheral_Library_v2.1.16/XMCLib/inc/xmc_ccu4.h ****  * SPECIAL, EXEMPLARY, OR CONSEQUENTIAL DAMAGES (INCLUDING, BUT NOT LIMITED TO, PROCUREMENT OF SUBS
  28:/opt/XMClib/XMC_Peripheral_Library_v2.1.16/XMCLib/inc/xmc_ccu4.h ****  * SERVICES; LOSS OF USE, DATA, OR PROFITS; OR BUSINESS INTERRUPTION) HOWEVER CAUSED AND ON ANY THE
  29:/opt/XMClib/XMC_Peripheral_Library_v2.1.16/XMCLib/inc/xmc_ccu4.h ****  * WHETHER IN CONTRACT, STRICT LIABILITY,OR TORT (INCLUDING NEGLIGENCE OR OTHERWISE) ARISING IN ANY
  30:/opt/XMClib/XMC_Peripheral_Library_v2.1.16/XMCLib/inc/xmc_ccu4.h ****  * OF THIS SOFTWARE, EVEN IF ADVISED OF THE POSSIBILITY OF SUCH DAMAGE.                            
  31:/opt/XMClib/XMC_Peripheral_Library_v2.1.16/XMCLib/inc/xmc_ccu4.h ****  *                                                                              
  32:/opt/XMClib/XMC_Peripheral_Library_v2.1.16/XMCLib/inc/xmc_ccu4.h ****  * To improve the quality of the software, users are encouraged to share modifications, enhancement
  33:/opt/XMClib/XMC_Peripheral_Library_v2.1.16/XMCLib/inc/xmc_ccu4.h ****  * Infineon Technologies AG dave@infineon.com).                                                    
  34:/opt/XMClib/XMC_Peripheral_Library_v2.1.16/XMCLib/inc/xmc_ccu4.h ****  **************************************************************************************************
  35:/opt/XMClib/XMC_Peripheral_Library_v2.1.16/XMCLib/inc/xmc_ccu4.h ****  *
  36:/opt/XMClib/XMC_Peripheral_Library_v2.1.16/XMCLib/inc/xmc_ccu4.h ****  * Change History
  37:/opt/XMClib/XMC_Peripheral_Library_v2.1.16/XMCLib/inc/xmc_ccu4.h ****  * --------------
  38:/opt/XMClib/XMC_Peripheral_Library_v2.1.16/XMCLib/inc/xmc_ccu4.h ****  *
  39:/opt/XMClib/XMC_Peripheral_Library_v2.1.16/XMCLib/inc/xmc_ccu4.h ****  * 2015-02-20:
  40:/opt/XMClib/XMC_Peripheral_Library_v2.1.16/XMCLib/inc/xmc_ccu4.h ****  *     - Initial <br>
  41:/opt/XMClib/XMC_Peripheral_Library_v2.1.16/XMCLib/inc/xmc_ccu4.h ****  *     - Documentation updates <br>
  42:/opt/XMClib/XMC_Peripheral_Library_v2.1.16/XMCLib/inc/xmc_ccu4.h ****  *
  43:/opt/XMClib/XMC_Peripheral_Library_v2.1.16/XMCLib/inc/xmc_ccu4.h ****  * 2015-06-20:
  44:/opt/XMClib/XMC_Peripheral_Library_v2.1.16/XMCLib/inc/xmc_ccu4.h ****  *     - Removed version macros and declaration of GetDriverVersion API <br>
  45:/opt/XMClib/XMC_Peripheral_Library_v2.1.16/XMCLib/inc/xmc_ccu4.h ****  *
  46:/opt/XMClib/XMC_Peripheral_Library_v2.1.16/XMCLib/inc/xmc_ccu4.h ****  * 2015-07-22:
  47:/opt/XMClib/XMC_Peripheral_Library_v2.1.16/XMCLib/inc/xmc_ccu4.h ****  *     - XMC_CCU4_SLICE_ConfigureStatusBitOverrideEvent() is updated to support XMC14 device. <br>
  48:/opt/XMClib/XMC_Peripheral_Library_v2.1.16/XMCLib/inc/xmc_ccu4.h ****  *
  49:/opt/XMClib/XMC_Peripheral_Library_v2.1.16/XMCLib/inc/xmc_ccu4.h ****  * 2015-08-17:
  50:/opt/XMClib/XMC_Peripheral_Library_v2.1.16/XMCLib/inc/xmc_ccu4.h ****  *     - XMC_CCU4_SLICE_PRESCALER_t enum is added to set the prescaler divider. <br>
  51:/opt/XMClib/XMC_Peripheral_Library_v2.1.16/XMCLib/inc/xmc_ccu4.h ****  *     - XMC_CCU4_SLICE_SHADOW_TRANSFER_MODE_t enum item names are updated according to the guideli
  52:/opt/XMClib/XMC_Peripheral_Library_v2.1.16/XMCLib/inc/xmc_ccu4.h ****  *     - XMC_CCU4_EnableShadowTransfer() API is made as inline, to improve the speed. <br>
  53:/opt/XMClib/XMC_Peripheral_Library_v2.1.16/XMCLib/inc/xmc_ccu4.h ****  *
  54:/opt/XMClib/XMC_Peripheral_Library_v2.1.16/XMCLib/inc/xmc_ccu4.h ****  * 2015-09-29:
  55:/opt/XMClib/XMC_Peripheral_Library_v2.1.16/XMCLib/inc/xmc_ccu4.h ****  *     - In XMC_CCU4_SLICE_EVENT_LEVEL_SENSITIVITY_t, two more enum items are added to support exte
  56:/opt/XMClib/XMC_Peripheral_Library_v2.1.16/XMCLib/inc/xmc_ccu4.h ****  *       settings.
  57:/opt/XMClib/XMC_Peripheral_Library_v2.1.16/XMCLib/inc/xmc_ccu4.h ****  *
  58:/opt/XMClib/XMC_Peripheral_Library_v2.1.16/XMCLib/inc/xmc_ccu4.h ****  * 2015-10-07:
  59:/opt/XMClib/XMC_Peripheral_Library_v2.1.16/XMCLib/inc/xmc_ccu4.h ****  *     - XMC_CCU4_SLICE_GetEvent() is made as inline.
  60:/opt/XMClib/XMC_Peripheral_Library_v2.1.16/XMCLib/inc/xmc_ccu4.h ****  *     - XMC_CCU4_SLICE_MULTI_IRQ_ID_t is added to support the XMC_CCU4_SLICE_EnableMultipleEvents(
  61:/opt/XMClib/XMC_Peripheral_Library_v2.1.16/XMCLib/inc/xmc_ccu4.h ****  *       XMC_CCU4_SLICE_DisableMultipleEvents() APIs.
  62:/opt/XMClib/XMC_Peripheral_Library_v2.1.16/XMCLib/inc/xmc_ccu4.h ****  *     - DOC updates for the newly added APIs.
  63:/opt/XMClib/XMC_Peripheral_Library_v2.1.16/XMCLib/inc/xmc_ccu4.h ****  *
  64:/opt/XMClib/XMC_Peripheral_Library_v2.1.16/XMCLib/inc/xmc_ccu4.h ****  * 2016-03-09:
  65:/opt/XMClib/XMC_Peripheral_Library_v2.1.16/XMCLib/inc/xmc_ccu4.h ****  *     - Optimization of write only registers 
  66:/opt/XMClib/XMC_Peripheral_Library_v2.1.16/XMCLib/inc/xmc_ccu4.h ****  *
  67:/opt/XMClib/XMC_Peripheral_Library_v2.1.16/XMCLib/inc/xmc_ccu4.h ****  * 2016-05-20:
  68:/opt/XMClib/XMC_Peripheral_Library_v2.1.16/XMCLib/inc/xmc_ccu4.h ****  *     - Added XMC_CCU4_SLICE_StopClearTimer()
  69:/opt/XMClib/XMC_Peripheral_Library_v2.1.16/XMCLib/inc/xmc_ccu4.h ****  *     - Changed implementation of XMC_CCU4_SLICE_StopTimer() and XMC_CCU4_SLICE_ClearTimer() to av
  70:/opt/XMClib/XMC_Peripheral_Library_v2.1.16/XMCLib/inc/xmc_ccu4.h ****  *
  71:/opt/XMClib/XMC_Peripheral_Library_v2.1.16/XMCLib/inc/xmc_ccu4.h ****  * 2017-04-27:
  72:/opt/XMClib/XMC_Peripheral_Library_v2.1.16/XMCLib/inc/xmc_ccu4.h ****  *     - XMC_CCU4_SLICE_SetPrescaler() changed div_val parameter to type XMC_CCU4_SLICE_PRESCALER_t
  73:/opt/XMClib/XMC_Peripheral_Library_v2.1.16/XMCLib/inc/xmc_ccu4.h ****  * 
  74:/opt/XMClib/XMC_Peripheral_Library_v2.1.16/XMCLib/inc/xmc_ccu4.h ****  * @endcond
  75:/opt/XMClib/XMC_Peripheral_Library_v2.1.16/XMCLib/inc/xmc_ccu4.h ****  */
  76:/opt/XMClib/XMC_Peripheral_Library_v2.1.16/XMCLib/inc/xmc_ccu4.h **** 
  77:/opt/XMClib/XMC_Peripheral_Library_v2.1.16/XMCLib/inc/xmc_ccu4.h **** #ifndef XMC_CCU4_H
  78:/opt/XMClib/XMC_Peripheral_Library_v2.1.16/XMCLib/inc/xmc_ccu4.h **** #define XMC_CCU4_H
  79:/opt/XMClib/XMC_Peripheral_Library_v2.1.16/XMCLib/inc/xmc_ccu4.h ****  
  80:/opt/XMClib/XMC_Peripheral_Library_v2.1.16/XMCLib/inc/xmc_ccu4.h **** /**************************************************************************************************
  81:/opt/XMClib/XMC_Peripheral_Library_v2.1.16/XMCLib/inc/xmc_ccu4.h ****  * HEADER FILES
  82:/opt/XMClib/XMC_Peripheral_Library_v2.1.16/XMCLib/inc/xmc_ccu4.h ****  **************************************************************************************************
  83:/opt/XMClib/XMC_Peripheral_Library_v2.1.16/XMCLib/inc/xmc_ccu4.h **** #include "xmc_common.h"
  84:/opt/XMClib/XMC_Peripheral_Library_v2.1.16/XMCLib/inc/xmc_ccu4.h **** #if defined(CCU40)
  85:/opt/XMClib/XMC_Peripheral_Library_v2.1.16/XMCLib/inc/xmc_ccu4.h **** 
  86:/opt/XMClib/XMC_Peripheral_Library_v2.1.16/XMCLib/inc/xmc_ccu4.h **** #if UC_FAMILY == XMC1
  87:/opt/XMClib/XMC_Peripheral_Library_v2.1.16/XMCLib/inc/xmc_ccu4.h ****  #include "xmc1_ccu4_map.h"
  88:/opt/XMClib/XMC_Peripheral_Library_v2.1.16/XMCLib/inc/xmc_ccu4.h **** #endif
  89:/opt/XMClib/XMC_Peripheral_Library_v2.1.16/XMCLib/inc/xmc_ccu4.h **** 
  90:/opt/XMClib/XMC_Peripheral_Library_v2.1.16/XMCLib/inc/xmc_ccu4.h **** #if UC_FAMILY == XMC4
  91:/opt/XMClib/XMC_Peripheral_Library_v2.1.16/XMCLib/inc/xmc_ccu4.h ****  #include "xmc4_ccu4_map.h"
  92:/opt/XMClib/XMC_Peripheral_Library_v2.1.16/XMCLib/inc/xmc_ccu4.h **** #endif
  93:/opt/XMClib/XMC_Peripheral_Library_v2.1.16/XMCLib/inc/xmc_ccu4.h **** 
  94:/opt/XMClib/XMC_Peripheral_Library_v2.1.16/XMCLib/inc/xmc_ccu4.h **** /**
  95:/opt/XMClib/XMC_Peripheral_Library_v2.1.16/XMCLib/inc/xmc_ccu4.h ****  * @addtogroup XMClib XMC Peripheral Library
  96:/opt/XMClib/XMC_Peripheral_Library_v2.1.16/XMCLib/inc/xmc_ccu4.h ****  * @{
  97:/opt/XMClib/XMC_Peripheral_Library_v2.1.16/XMCLib/inc/xmc_ccu4.h ****  */
  98:/opt/XMClib/XMC_Peripheral_Library_v2.1.16/XMCLib/inc/xmc_ccu4.h ****  
  99:/opt/XMClib/XMC_Peripheral_Library_v2.1.16/XMCLib/inc/xmc_ccu4.h **** /**
 100:/opt/XMClib/XMC_Peripheral_Library_v2.1.16/XMCLib/inc/xmc_ccu4.h ****  * @addtogroup CCU4
 101:/opt/XMClib/XMC_Peripheral_Library_v2.1.16/XMCLib/inc/xmc_ccu4.h ****  * @brief Capture Compare Unit 4 (CCU4) low level driver for XMC family of microcontrollers<br>
 102:/opt/XMClib/XMC_Peripheral_Library_v2.1.16/XMCLib/inc/xmc_ccu4.h ****  *
 103:/opt/XMClib/XMC_Peripheral_Library_v2.1.16/XMCLib/inc/xmc_ccu4.h ****  * The CCU4 peripheral is a major component for systems that need general purpose timers for signal
 104:/opt/XMClib/XMC_Peripheral_Library_v2.1.16/XMCLib/inc/xmc_ccu4.h ****  * monitoring/conditioning and Pulse Width Modulation (PWM) signal generation. Power electronic con
 105:/opt/XMClib/XMC_Peripheral_Library_v2.1.16/XMCLib/inc/xmc_ccu4.h ****  * switched mode power supplies or interruptible power supplies, can easily be implemented with the
 106:/opt/XMClib/XMC_Peripheral_Library_v2.1.16/XMCLib/inc/xmc_ccu4.h ****  * CCU4 peripheral.\n
 107:/opt/XMClib/XMC_Peripheral_Library_v2.1.16/XMCLib/inc/xmc_ccu4.h ****  * Each CCU4 module is comprised of four identical 16 bit Capture/Compare Timer slices, CC4y (where
 108:/opt/XMClib/XMC_Peripheral_Library_v2.1.16/XMCLib/inc/xmc_ccu4.h ****  * timer slice can work in compare mode or in capture mode.
 109:/opt/XMClib/XMC_Peripheral_Library_v2.1.16/XMCLib/inc/xmc_ccu4.h ****  *
 110:/opt/XMClib/XMC_Peripheral_Library_v2.1.16/XMCLib/inc/xmc_ccu4.h ****  * APIs provided in this file cover the following functional blocks of CCU4:\n
 111:/opt/XMClib/XMC_Peripheral_Library_v2.1.16/XMCLib/inc/xmc_ccu4.h ****  * -- Timer configuration, Capture configuration, Function/Event configuration, Interrupt configura
 112:/opt/XMClib/XMC_Peripheral_Library_v2.1.16/XMCLib/inc/xmc_ccu4.h ****  * \par Note:
 113:/opt/XMClib/XMC_Peripheral_Library_v2.1.16/XMCLib/inc/xmc_ccu4.h ****  * 1. SLICE (APIs prefixed with e.g. XMC_CCU4_SLICE_)
 114:/opt/XMClib/XMC_Peripheral_Library_v2.1.16/XMCLib/inc/xmc_ccu4.h ****  * 2. Module (APIs are not having any prefix e.g. XMC_CCU4_)
 115:/opt/XMClib/XMC_Peripheral_Library_v2.1.16/XMCLib/inc/xmc_ccu4.h ****  *
 116:/opt/XMClib/XMC_Peripheral_Library_v2.1.16/XMCLib/inc/xmc_ccu4.h ****  * \par Timer(Compare mode) configuration:
 117:/opt/XMClib/XMC_Peripheral_Library_v2.1.16/XMCLib/inc/xmc_ccu4.h ****  * This section of the LLD provides the configuration structure XMC_CCU4_SLICE_COMPARE_CONFIG_t and
 118:/opt/XMClib/XMC_Peripheral_Library_v2.1.16/XMCLib/inc/xmc_ccu4.h ****  * function XMC_CCU4_SLICE_CompareInit().
 119:/opt/XMClib/XMC_Peripheral_Library_v2.1.16/XMCLib/inc/xmc_ccu4.h ****  *
 120:/opt/XMClib/XMC_Peripheral_Library_v2.1.16/XMCLib/inc/xmc_ccu4.h ****  * It can be used to:
 121:/opt/XMClib/XMC_Peripheral_Library_v2.1.16/XMCLib/inc/xmc_ccu4.h ****  * -# Start and Stop the timer. (XMC_CCU4_SLICE_StartTimer(), XMC_CCU4_SLICE_StopTimer())
 122:/opt/XMClib/XMC_Peripheral_Library_v2.1.16/XMCLib/inc/xmc_ccu4.h ****  * -# Update the period, compare, Dither, Prescaler  and Passive values. (XMC_CCU4_SLICE_SetTimerPe
 123:/opt/XMClib/XMC_Peripheral_Library_v2.1.16/XMCLib/inc/xmc_ccu4.h ****  *    XMC_CCU4_SLICE_SetTimerCompareMatch(), XMC_CCU4_SLICE_SetPrescaler(), XMC_CCU4_SLICE_SetDithe
 124:/opt/XMClib/XMC_Peripheral_Library_v2.1.16/XMCLib/inc/xmc_ccu4.h ****  *    XMC_CCU4_SLICE_SetPassiveLevel())
 125:/opt/XMClib/XMC_Peripheral_Library_v2.1.16/XMCLib/inc/xmc_ccu4.h ****  * -# Enable the slices to support multichannel mode. (XMC_CCU4_SLICE_EnableMultiChannelMode())
 126:/opt/XMClib/XMC_Peripheral_Library_v2.1.16/XMCLib/inc/xmc_ccu4.h ****  * 
 127:/opt/XMClib/XMC_Peripheral_Library_v2.1.16/XMCLib/inc/xmc_ccu4.h ****  * \par Capture configuration:
 128:/opt/XMClib/XMC_Peripheral_Library_v2.1.16/XMCLib/inc/xmc_ccu4.h ****  * This section of the LLD provides the configuration structure XMC_CCU4_SLICE_CAPTURE_CONFIG_t and
 129:/opt/XMClib/XMC_Peripheral_Library_v2.1.16/XMCLib/inc/xmc_ccu4.h ****  * function XMC_CCU4_SLICE_CaptureInit().
 130:/opt/XMClib/XMC_Peripheral_Library_v2.1.16/XMCLib/inc/xmc_ccu4.h ****  *
 131:/opt/XMClib/XMC_Peripheral_Library_v2.1.16/XMCLib/inc/xmc_ccu4.h ****  * It can be used to:
 132:/opt/XMClib/XMC_Peripheral_Library_v2.1.16/XMCLib/inc/xmc_ccu4.h ****  * -# Configure the capture functionality. (XMC_CCU4_SLICE_Capture0Config(), XMC_CCU4_SLICE_Capture
 133:/opt/XMClib/XMC_Peripheral_Library_v2.1.16/XMCLib/inc/xmc_ccu4.h ****  * -# Read the captured values along with the status, which indicate the value is latest or not.
 134:/opt/XMClib/XMC_Peripheral_Library_v2.1.16/XMCLib/inc/xmc_ccu4.h ****  *    (XMC_CCU4_SLICE_GetCaptureRegisterValue())
 135:/opt/XMClib/XMC_Peripheral_Library_v2.1.16/XMCLib/inc/xmc_ccu4.h ****  * 
 136:/opt/XMClib/XMC_Peripheral_Library_v2.1.16/XMCLib/inc/xmc_ccu4.h ****  * \par Function/Event configuration:
 137:/opt/XMClib/XMC_Peripheral_Library_v2.1.16/XMCLib/inc/xmc_ccu4.h ****  * This section of the LLD provides the configuration structure XMC_CCU4_SLICE_EVENT_CONFIG_t.\n
 138:/opt/XMClib/XMC_Peripheral_Library_v2.1.16/XMCLib/inc/xmc_ccu4.h ****  * 
 139:/opt/XMClib/XMC_Peripheral_Library_v2.1.16/XMCLib/inc/xmc_ccu4.h ****  * It can be used to:
 140:/opt/XMClib/XMC_Peripheral_Library_v2.1.16/XMCLib/inc/xmc_ccu4.h ****  * -# Enable and Disable the events. (XMC_CCU4_SLICE_EnableEvent(), XMC_CCU4_SLICE_DisableEvent())
 141:/opt/XMClib/XMC_Peripheral_Library_v2.1.16/XMCLib/inc/xmc_ccu4.h ****  * -# Configure to start and stop the timer on external events.(XMC_CCU4_SLICE_StartConfig(), XMC_C
 142:/opt/XMClib/XMC_Peripheral_Library_v2.1.16/XMCLib/inc/xmc_ccu4.h ****  * -# Modulation, external load and Gating of the timer output.(XMC_CCU4_SLICE_ModulationConfig(), 
 143:/opt/XMClib/XMC_Peripheral_Library_v2.1.16/XMCLib/inc/xmc_ccu4.h ****  *    XMC_CCU4_SLICE_LoadConfig(), XMC_CCU4_SLICE_GateConfig())
 144:/opt/XMClib/XMC_Peripheral_Library_v2.1.16/XMCLib/inc/xmc_ccu4.h ****  * -# Control the count direction of the timer based on the external event. (XMC_CCU4_SLICE_Directi
 145:/opt/XMClib/XMC_Peripheral_Library_v2.1.16/XMCLib/inc/xmc_ccu4.h ****  * -# Count the external events.(XMC_CCU4_SLICE_CountConfig())
 146:/opt/XMClib/XMC_Peripheral_Library_v2.1.16/XMCLib/inc/xmc_ccu4.h ****  * -# External Trap. Which can be used as protective feature.(XMC_CCU4_SLICE_EnableTrap(), XMC_CCU4
 147:/opt/XMClib/XMC_Peripheral_Library_v2.1.16/XMCLib/inc/xmc_ccu4.h ****  *    XMC_CCU4_SLICE_TrapConfig())
 148:/opt/XMClib/XMC_Peripheral_Library_v2.1.16/XMCLib/inc/xmc_ccu4.h ****  *
 149:/opt/XMClib/XMC_Peripheral_Library_v2.1.16/XMCLib/inc/xmc_ccu4.h ****  * \par Interrupt configuration:
 150:/opt/XMClib/XMC_Peripheral_Library_v2.1.16/XMCLib/inc/xmc_ccu4.h ****  * This section of the LLD provides the function to configure the interrupt node to each event (XMC
 151:/opt/XMClib/XMC_Peripheral_Library_v2.1.16/XMCLib/inc/xmc_ccu4.h ****  * @{
 152:/opt/XMClib/XMC_Peripheral_Library_v2.1.16/XMCLib/inc/xmc_ccu4.h ****  */
 153:/opt/XMClib/XMC_Peripheral_Library_v2.1.16/XMCLib/inc/xmc_ccu4.h ****  
 154:/opt/XMClib/XMC_Peripheral_Library_v2.1.16/XMCLib/inc/xmc_ccu4.h **** /**************************************************************************************************
 155:/opt/XMClib/XMC_Peripheral_Library_v2.1.16/XMCLib/inc/xmc_ccu4.h ****  * MACROS
 156:/opt/XMClib/XMC_Peripheral_Library_v2.1.16/XMCLib/inc/xmc_ccu4.h ****  **************************************************************************************************
 157:/opt/XMClib/XMC_Peripheral_Library_v2.1.16/XMCLib/inc/xmc_ccu4.h **** /* Macro to check if the interrupt enum passed is valid */
 158:/opt/XMClib/XMC_Peripheral_Library_v2.1.16/XMCLib/inc/xmc_ccu4.h **** #define XMC_CCU4_SLICE_CHECK_INTERRUPT(interrupt) \
 159:/opt/XMClib/XMC_Peripheral_Library_v2.1.16/XMCLib/inc/xmc_ccu4.h ****     ((interrupt == XMC_CCU4_SLICE_IRQ_ID_PERIOD_MATCH)           || \
 160:/opt/XMClib/XMC_Peripheral_Library_v2.1.16/XMCLib/inc/xmc_ccu4.h ****      (interrupt == XMC_CCU4_SLICE_IRQ_ID_ONE_MATCH)              || \
 161:/opt/XMClib/XMC_Peripheral_Library_v2.1.16/XMCLib/inc/xmc_ccu4.h ****      (interrupt == XMC_CCU4_SLICE_IRQ_ID_COMPARE_MATCH_UP)  || \
 162:/opt/XMClib/XMC_Peripheral_Library_v2.1.16/XMCLib/inc/xmc_ccu4.h ****      (interrupt == XMC_CCU4_SLICE_IRQ_ID_COMPARE_MATCH_DOWN)|| \
 163:/opt/XMClib/XMC_Peripheral_Library_v2.1.16/XMCLib/inc/xmc_ccu4.h ****      (interrupt == XMC_CCU4_SLICE_IRQ_ID_EVENT0)                 || \
 164:/opt/XMClib/XMC_Peripheral_Library_v2.1.16/XMCLib/inc/xmc_ccu4.h ****      (interrupt == XMC_CCU4_SLICE_IRQ_ID_EVENT1)                 || \
 165:/opt/XMClib/XMC_Peripheral_Library_v2.1.16/XMCLib/inc/xmc_ccu4.h ****      (interrupt == XMC_CCU4_SLICE_IRQ_ID_EVENT2)                 || \
 166:/opt/XMClib/XMC_Peripheral_Library_v2.1.16/XMCLib/inc/xmc_ccu4.h ****      (interrupt == XMC_CCU4_SLICE_IRQ_ID_TRAP))
 167:/opt/XMClib/XMC_Peripheral_Library_v2.1.16/XMCLib/inc/xmc_ccu4.h **** 
 168:/opt/XMClib/XMC_Peripheral_Library_v2.1.16/XMCLib/inc/xmc_ccu4.h **** /**************************************************************************************************
 169:/opt/XMClib/XMC_Peripheral_Library_v2.1.16/XMCLib/inc/xmc_ccu4.h ****  * ENUMS
 170:/opt/XMClib/XMC_Peripheral_Library_v2.1.16/XMCLib/inc/xmc_ccu4.h ****  **************************************************************************************************
 171:/opt/XMClib/XMC_Peripheral_Library_v2.1.16/XMCLib/inc/xmc_ccu4.h **** 
 172:/opt/XMClib/XMC_Peripheral_Library_v2.1.16/XMCLib/inc/xmc_ccu4.h **** /**
 173:/opt/XMClib/XMC_Peripheral_Library_v2.1.16/XMCLib/inc/xmc_ccu4.h ****  * Typedef for CCU4 Global data structure
 174:/opt/XMClib/XMC_Peripheral_Library_v2.1.16/XMCLib/inc/xmc_ccu4.h ****  */
 175:/opt/XMClib/XMC_Peripheral_Library_v2.1.16/XMCLib/inc/xmc_ccu4.h **** typedef CCU4_GLOBAL_TypeDef XMC_CCU4_MODULE_t;
 176:/opt/XMClib/XMC_Peripheral_Library_v2.1.16/XMCLib/inc/xmc_ccu4.h **** 
 177:/opt/XMClib/XMC_Peripheral_Library_v2.1.16/XMCLib/inc/xmc_ccu4.h **** /**
 178:/opt/XMClib/XMC_Peripheral_Library_v2.1.16/XMCLib/inc/xmc_ccu4.h ****  * Typedef for CCU4 Slice data structure
 179:/opt/XMClib/XMC_Peripheral_Library_v2.1.16/XMCLib/inc/xmc_ccu4.h ****  */
 180:/opt/XMClib/XMC_Peripheral_Library_v2.1.16/XMCLib/inc/xmc_ccu4.h **** typedef CCU4_CC4_TypeDef XMC_CCU4_SLICE_t;
 181:/opt/XMClib/XMC_Peripheral_Library_v2.1.16/XMCLib/inc/xmc_ccu4.h **** 
 182:/opt/XMClib/XMC_Peripheral_Library_v2.1.16/XMCLib/inc/xmc_ccu4.h **** /**
 183:/opt/XMClib/XMC_Peripheral_Library_v2.1.16/XMCLib/inc/xmc_ccu4.h ****  *  Return Value of an API
 184:/opt/XMClib/XMC_Peripheral_Library_v2.1.16/XMCLib/inc/xmc_ccu4.h ****  */ 
 185:/opt/XMClib/XMC_Peripheral_Library_v2.1.16/XMCLib/inc/xmc_ccu4.h **** typedef enum XMC_CCU4_STATUS
 186:/opt/XMClib/XMC_Peripheral_Library_v2.1.16/XMCLib/inc/xmc_ccu4.h **** {
 187:/opt/XMClib/XMC_Peripheral_Library_v2.1.16/XMCLib/inc/xmc_ccu4.h ****   XMC_CCU4_STATUS_OK      = 0U, /**< API fulfils request */
 188:/opt/XMClib/XMC_Peripheral_Library_v2.1.16/XMCLib/inc/xmc_ccu4.h ****   XMC_CCU4_STATUS_ERROR       , /**< API cannot fulfil the request */
 189:/opt/XMClib/XMC_Peripheral_Library_v2.1.16/XMCLib/inc/xmc_ccu4.h ****   XMC_CCU4_STATUS_RUNNING     , /**< The timer slice is currently running */
 190:/opt/XMClib/XMC_Peripheral_Library_v2.1.16/XMCLib/inc/xmc_ccu4.h ****   XMC_CCU4_STATUS_IDLE          /**< The timer slice is currently idle */
 191:/opt/XMClib/XMC_Peripheral_Library_v2.1.16/XMCLib/inc/xmc_ccu4.h **** } XMC_CCU4_STATUS_t;
 192:/opt/XMClib/XMC_Peripheral_Library_v2.1.16/XMCLib/inc/xmc_ccu4.h **** 
 193:/opt/XMClib/XMC_Peripheral_Library_v2.1.16/XMCLib/inc/xmc_ccu4.h **** /**
 194:/opt/XMClib/XMC_Peripheral_Library_v2.1.16/XMCLib/inc/xmc_ccu4.h ****  *  CCU4 module clock
 195:/opt/XMClib/XMC_Peripheral_Library_v2.1.16/XMCLib/inc/xmc_ccu4.h ****  */ 
 196:/opt/XMClib/XMC_Peripheral_Library_v2.1.16/XMCLib/inc/xmc_ccu4.h **** typedef enum XMC_CCU4_CLOCK
 197:/opt/XMClib/XMC_Peripheral_Library_v2.1.16/XMCLib/inc/xmc_ccu4.h **** {
 198:/opt/XMClib/XMC_Peripheral_Library_v2.1.16/XMCLib/inc/xmc_ccu4.h ****   XMC_CCU4_CLOCK_SCU        = 0U, /**< Select the fCCU as the clock */
 199:/opt/XMClib/XMC_Peripheral_Library_v2.1.16/XMCLib/inc/xmc_ccu4.h ****   XMC_CCU4_CLOCK_EXTERNAL_A     , /**< External clock-A */
 200:/opt/XMClib/XMC_Peripheral_Library_v2.1.16/XMCLib/inc/xmc_ccu4.h ****   XMC_CCU4_CLOCK_EXTERNAL_B     , /**< External clock-B */
 201:/opt/XMClib/XMC_Peripheral_Library_v2.1.16/XMCLib/inc/xmc_ccu4.h ****   XMC_CCU4_CLOCK_EXTERNAL_C       /**< External clock-C */
 202:/opt/XMClib/XMC_Peripheral_Library_v2.1.16/XMCLib/inc/xmc_ccu4.h **** } XMC_CCU4_CLOCK_t;
 203:/opt/XMClib/XMC_Peripheral_Library_v2.1.16/XMCLib/inc/xmc_ccu4.h **** 
 204:/opt/XMClib/XMC_Peripheral_Library_v2.1.16/XMCLib/inc/xmc_ccu4.h **** /**
 205:/opt/XMClib/XMC_Peripheral_Library_v2.1.16/XMCLib/inc/xmc_ccu4.h ****  * CCU4 set the shadow transfer type for multichannel mode
 206:/opt/XMClib/XMC_Peripheral_Library_v2.1.16/XMCLib/inc/xmc_ccu4.h ****  */
 207:/opt/XMClib/XMC_Peripheral_Library_v2.1.16/XMCLib/inc/xmc_ccu4.h **** typedef enum XMC_CCU4_MULTI_CHANNEL_SHADOW_TRANSFER
 208:/opt/XMClib/XMC_Peripheral_Library_v2.1.16/XMCLib/inc/xmc_ccu4.h **** {
 209:/opt/XMClib/XMC_Peripheral_Library_v2.1.16/XMCLib/inc/xmc_ccu4.h ****   XMC_CCU4_MULTI_CHANNEL_SHADOW_TRANSFER_SW_SLICE0       = (uint32_t)0x4000000, /**< Shadow transfe
 210:/opt/XMClib/XMC_Peripheral_Library_v2.1.16/XMCLib/inc/xmc_ccu4.h ****                                                                                      only for slice
 211:/opt/XMClib/XMC_Peripheral_Library_v2.1.16/XMCLib/inc/xmc_ccu4.h ****   XMC_CCU4_MULTI_CHANNEL_SHADOW_TRANSFER_SW_MCSS_SLICE0  = (uint32_t)0x4000400, /**< Shadow transfe
 212:/opt/XMClib/XMC_Peripheral_Library_v2.1.16/XMCLib/inc/xmc_ccu4.h ****                                                                                      and hardware f
 213:/opt/XMClib/XMC_Peripheral_Library_v2.1.16/XMCLib/inc/xmc_ccu4.h ****   XMC_CCU4_MULTI_CHANNEL_SHADOW_TRANSFER_SW_SLICE1       = (uint32_t)0x8000000, /**< Shadow transfe
 214:/opt/XMClib/XMC_Peripheral_Library_v2.1.16/XMCLib/inc/xmc_ccu4.h ****                                                                                      only for slice
 215:/opt/XMClib/XMC_Peripheral_Library_v2.1.16/XMCLib/inc/xmc_ccu4.h ****   XMC_CCU4_MULTI_CHANNEL_SHADOW_TRANSFER_SW_MCSS_SLICE1  = (uint32_t)0x8000800, /**< Shadow transfe
 216:/opt/XMClib/XMC_Peripheral_Library_v2.1.16/XMCLib/inc/xmc_ccu4.h ****                                                                                      and hardware f
 217:/opt/XMClib/XMC_Peripheral_Library_v2.1.16/XMCLib/inc/xmc_ccu4.h ****   XMC_CCU4_MULTI_CHANNEL_SHADOW_TRANSFER_SW_SLICE2       = (uint32_t)0x10000000, /**< Shadow transf
 218:/opt/XMClib/XMC_Peripheral_Library_v2.1.16/XMCLib/inc/xmc_ccu4.h ****                                                                                       only for slic
 219:/opt/XMClib/XMC_Peripheral_Library_v2.1.16/XMCLib/inc/xmc_ccu4.h ****   XMC_CCU4_MULTI_CHANNEL_SHADOW_TRANSFER_SW_MCSS_SLICE2  = (uint32_t)0x10001000, /**< Shadow transf
 220:/opt/XMClib/XMC_Peripheral_Library_v2.1.16/XMCLib/inc/xmc_ccu4.h ****                                                                                       and hardware 
 221:/opt/XMClib/XMC_Peripheral_Library_v2.1.16/XMCLib/inc/xmc_ccu4.h ****   XMC_CCU4_MULTI_CHANNEL_SHADOW_TRANSFER_SW_SLICE3       = (uint32_t)0x20000000, /**< Shadow transf
 222:/opt/XMClib/XMC_Peripheral_Library_v2.1.16/XMCLib/inc/xmc_ccu4.h ****                                                                                       only for slic
 223:/opt/XMClib/XMC_Peripheral_Library_v2.1.16/XMCLib/inc/xmc_ccu4.h ****   XMC_CCU4_MULTI_CHANNEL_SHADOW_TRANSFER_SW_MCSS_SLICE3  = (uint32_t)0x20002000  /**< Shadow transf
 224:/opt/XMClib/XMC_Peripheral_Library_v2.1.16/XMCLib/inc/xmc_ccu4.h ****                                                                                       and hardware 
 225:/opt/XMClib/XMC_Peripheral_Library_v2.1.16/XMCLib/inc/xmc_ccu4.h **** } XMC_CCU4_MULTI_CHANNEL_SHADOW_TRANSFER_t;
 226:/opt/XMClib/XMC_Peripheral_Library_v2.1.16/XMCLib/inc/xmc_ccu4.h **** 
 227:/opt/XMClib/XMC_Peripheral_Library_v2.1.16/XMCLib/inc/xmc_ccu4.h **** /**
 228:/opt/XMClib/XMC_Peripheral_Library_v2.1.16/XMCLib/inc/xmc_ccu4.h ****  *  Operational modes of CCU4 slice
 229:/opt/XMClib/XMC_Peripheral_Library_v2.1.16/XMCLib/inc/xmc_ccu4.h ****  */ 
 230:/opt/XMClib/XMC_Peripheral_Library_v2.1.16/XMCLib/inc/xmc_ccu4.h **** typedef enum XMC_CCU4_SLICE_MODE
 231:/opt/XMClib/XMC_Peripheral_Library_v2.1.16/XMCLib/inc/xmc_ccu4.h **** {
 232:/opt/XMClib/XMC_Peripheral_Library_v2.1.16/XMCLib/inc/xmc_ccu4.h ****   XMC_CCU4_SLICE_MODE_COMPARE  = 0U, /**< slice(CC4y) operates in Compare Mode */
 233:/opt/XMClib/XMC_Peripheral_Library_v2.1.16/XMCLib/inc/xmc_ccu4.h ****   XMC_CCU4_SLICE_MODE_CAPTURE        /**< slice(CC4y) operates in Capture Mode */
 234:/opt/XMClib/XMC_Peripheral_Library_v2.1.16/XMCLib/inc/xmc_ccu4.h **** } XMC_CCU4_SLICE_MODE_t;
 235:/opt/XMClib/XMC_Peripheral_Library_v2.1.16/XMCLib/inc/xmc_ccu4.h **** 
 236:/opt/XMClib/XMC_Peripheral_Library_v2.1.16/XMCLib/inc/xmc_ccu4.h **** /**
 237:/opt/XMClib/XMC_Peripheral_Library_v2.1.16/XMCLib/inc/xmc_ccu4.h ****  *  Timer counting modes for the slice
 238:/opt/XMClib/XMC_Peripheral_Library_v2.1.16/XMCLib/inc/xmc_ccu4.h ****  */ 
 239:/opt/XMClib/XMC_Peripheral_Library_v2.1.16/XMCLib/inc/xmc_ccu4.h **** typedef enum XMC_CCU4_SLICE_TIMER_COUNT_MODE
 240:/opt/XMClib/XMC_Peripheral_Library_v2.1.16/XMCLib/inc/xmc_ccu4.h **** {
 241:/opt/XMClib/XMC_Peripheral_Library_v2.1.16/XMCLib/inc/xmc_ccu4.h ****   XMC_CCU4_SLICE_TIMER_COUNT_MODE_EA  = 0U, /**< Edge Aligned Mode */
 242:/opt/XMClib/XMC_Peripheral_Library_v2.1.16/XMCLib/inc/xmc_ccu4.h ****   XMC_CCU4_SLICE_TIMER_COUNT_MODE_CA        /**< Center Aligned Mode */
 243:/opt/XMClib/XMC_Peripheral_Library_v2.1.16/XMCLib/inc/xmc_ccu4.h **** } XMC_CCU4_SLICE_TIMER_COUNT_MODE_t;
 244:/opt/XMClib/XMC_Peripheral_Library_v2.1.16/XMCLib/inc/xmc_ccu4.h **** 
 245:/opt/XMClib/XMC_Peripheral_Library_v2.1.16/XMCLib/inc/xmc_ccu4.h **** /**
 246:/opt/XMClib/XMC_Peripheral_Library_v2.1.16/XMCLib/inc/xmc_ccu4.h ****  *  Timer repetition mode for the slice
 247:/opt/XMClib/XMC_Peripheral_Library_v2.1.16/XMCLib/inc/xmc_ccu4.h ****  */ 
 248:/opt/XMClib/XMC_Peripheral_Library_v2.1.16/XMCLib/inc/xmc_ccu4.h **** typedef enum XMC_CCU4_SLICE_TIMER_REPEAT_MODE
 249:/opt/XMClib/XMC_Peripheral_Library_v2.1.16/XMCLib/inc/xmc_ccu4.h **** {
 250:/opt/XMClib/XMC_Peripheral_Library_v2.1.16/XMCLib/inc/xmc_ccu4.h ****   XMC_CCU4_SLICE_TIMER_REPEAT_MODE_REPEAT = 0U,  /**< Repetitive mode: continuous mode of operation
 251:/opt/XMClib/XMC_Peripheral_Library_v2.1.16/XMCLib/inc/xmc_ccu4.h ****   XMC_CCU4_SLICE_TIMER_REPEAT_MODE_SINGLE        /**< Single shot mode: Once a Period match/One mat
 252:/opt/XMClib/XMC_Peripheral_Library_v2.1.16/XMCLib/inc/xmc_ccu4.h ****                                                       occurs timer goes to idle state */
 253:/opt/XMClib/XMC_Peripheral_Library_v2.1.16/XMCLib/inc/xmc_ccu4.h **** } XMC_CCU4_SLICE_TIMER_REPEAT_MODE_t;
 254:/opt/XMClib/XMC_Peripheral_Library_v2.1.16/XMCLib/inc/xmc_ccu4.h **** 
 255:/opt/XMClib/XMC_Peripheral_Library_v2.1.16/XMCLib/inc/xmc_ccu4.h **** /**
 256:/opt/XMClib/XMC_Peripheral_Library_v2.1.16/XMCLib/inc/xmc_ccu4.h ****  * Timer counting direction for the CCU4 slice
 257:/opt/XMClib/XMC_Peripheral_Library_v2.1.16/XMCLib/inc/xmc_ccu4.h ****  */ 
 258:/opt/XMClib/XMC_Peripheral_Library_v2.1.16/XMCLib/inc/xmc_ccu4.h **** typedef enum XMC_CCU4_SLICE_TIMER_COUNT_DIR
 259:/opt/XMClib/XMC_Peripheral_Library_v2.1.16/XMCLib/inc/xmc_ccu4.h **** {
 260:/opt/XMClib/XMC_Peripheral_Library_v2.1.16/XMCLib/inc/xmc_ccu4.h ****   XMC_CCU4_SLICE_TIMER_COUNT_DIR_UP   = 0U, /**< Counting up */
 261:/opt/XMClib/XMC_Peripheral_Library_v2.1.16/XMCLib/inc/xmc_ccu4.h ****   XMC_CCU4_SLICE_TIMER_COUNT_DIR_DOWN       /**< Counting down */
 262:/opt/XMClib/XMC_Peripheral_Library_v2.1.16/XMCLib/inc/xmc_ccu4.h **** } XMC_CCU4_SLICE_TIMER_COUNT_DIR_t;
 263:/opt/XMClib/XMC_Peripheral_Library_v2.1.16/XMCLib/inc/xmc_ccu4.h **** 
 264:/opt/XMClib/XMC_Peripheral_Library_v2.1.16/XMCLib/inc/xmc_ccu4.h **** /**
 265:/opt/XMClib/XMC_Peripheral_Library_v2.1.16/XMCLib/inc/xmc_ccu4.h ****  *  Capture mode register sets
 266:/opt/XMClib/XMC_Peripheral_Library_v2.1.16/XMCLib/inc/xmc_ccu4.h ****  */ 
 267:/opt/XMClib/XMC_Peripheral_Library_v2.1.16/XMCLib/inc/xmc_ccu4.h **** typedef enum XMC_CCU4_SLICE_CAP_REG_SET
 268:/opt/XMClib/XMC_Peripheral_Library_v2.1.16/XMCLib/inc/xmc_ccu4.h **** {
 269:/opt/XMClib/XMC_Peripheral_Library_v2.1.16/XMCLib/inc/xmc_ccu4.h ****   XMC_CCU4_SLICE_CAP_REG_SET_LOW  = 0U, /**< Capture register-0, Capture register-1 used */
 270:/opt/XMClib/XMC_Peripheral_Library_v2.1.16/XMCLib/inc/xmc_ccu4.h ****   XMC_CCU4_SLICE_CAP_REG_SET_HIGH       /**< Capture register-2, Capture register-3 used */
 271:/opt/XMClib/XMC_Peripheral_Library_v2.1.16/XMCLib/inc/xmc_ccu4.h **** } XMC_CCU4_SLICE_CAP_REG_SET_t;
 272:/opt/XMClib/XMC_Peripheral_Library_v2.1.16/XMCLib/inc/xmc_ccu4.h **** 
 273:/opt/XMClib/XMC_Peripheral_Library_v2.1.16/XMCLib/inc/xmc_ccu4.h **** /**
 274:/opt/XMClib/XMC_Peripheral_Library_v2.1.16/XMCLib/inc/xmc_ccu4.h ****  *  Prescaler mode
 275:/opt/XMClib/XMC_Peripheral_Library_v2.1.16/XMCLib/inc/xmc_ccu4.h ****  */ 
 276:/opt/XMClib/XMC_Peripheral_Library_v2.1.16/XMCLib/inc/xmc_ccu4.h **** typedef enum XMC_CCU4_SLICE_PRESCALER_MODE
 277:/opt/XMClib/XMC_Peripheral_Library_v2.1.16/XMCLib/inc/xmc_ccu4.h **** {
 278:/opt/XMClib/XMC_Peripheral_Library_v2.1.16/XMCLib/inc/xmc_ccu4.h ****   XMC_CCU4_SLICE_PRESCALER_MODE_NORMAL = 0U, /**< Fixed division of module clock */
 279:/opt/XMClib/XMC_Peripheral_Library_v2.1.16/XMCLib/inc/xmc_ccu4.h ****   XMC_CCU4_SLICE_PRESCALER_MODE_FLOAT        /**< Floating divider. */
 280:/opt/XMClib/XMC_Peripheral_Library_v2.1.16/XMCLib/inc/xmc_ccu4.h **** } XMC_CCU4_SLICE_PRESCALER_MODE_t;
 281:/opt/XMClib/XMC_Peripheral_Library_v2.1.16/XMCLib/inc/xmc_ccu4.h **** 
 282:/opt/XMClib/XMC_Peripheral_Library_v2.1.16/XMCLib/inc/xmc_ccu4.h **** /**
 283:/opt/XMClib/XMC_Peripheral_Library_v2.1.16/XMCLib/inc/xmc_ccu4.h ****  *  Timer output passive level
 284:/opt/XMClib/XMC_Peripheral_Library_v2.1.16/XMCLib/inc/xmc_ccu4.h ****  */ 
 285:/opt/XMClib/XMC_Peripheral_Library_v2.1.16/XMCLib/inc/xmc_ccu4.h **** typedef enum XMC_CCU4_SLICE_OUTPUT_PASSIVE_LEVEL
 286:/opt/XMClib/XMC_Peripheral_Library_v2.1.16/XMCLib/inc/xmc_ccu4.h **** {
 287:/opt/XMClib/XMC_Peripheral_Library_v2.1.16/XMCLib/inc/xmc_ccu4.h ****   XMC_CCU4_SLICE_OUTPUT_PASSIVE_LEVEL_LOW  = 0U, /**< Passive level = Low */
 288:/opt/XMClib/XMC_Peripheral_Library_v2.1.16/XMCLib/inc/xmc_ccu4.h ****   XMC_CCU4_SLICE_OUTPUT_PASSIVE_LEVEL_HIGH       /**< Passive level = High */
 289:/opt/XMClib/XMC_Peripheral_Library_v2.1.16/XMCLib/inc/xmc_ccu4.h **** } XMC_CCU4_SLICE_OUTPUT_PASSIVE_LEVEL_t;
 290:/opt/XMClib/XMC_Peripheral_Library_v2.1.16/XMCLib/inc/xmc_ccu4.h **** 
 291:/opt/XMClib/XMC_Peripheral_Library_v2.1.16/XMCLib/inc/xmc_ccu4.h **** /**
 292:/opt/XMClib/XMC_Peripheral_Library_v2.1.16/XMCLib/inc/xmc_ccu4.h ****  * Timer clock Divider
 293:/opt/XMClib/XMC_Peripheral_Library_v2.1.16/XMCLib/inc/xmc_ccu4.h ****  */
 294:/opt/XMClib/XMC_Peripheral_Library_v2.1.16/XMCLib/inc/xmc_ccu4.h **** typedef enum XMC_CCU4_SLICE_PRESCALER
 295:/opt/XMClib/XMC_Peripheral_Library_v2.1.16/XMCLib/inc/xmc_ccu4.h **** {
 296:/opt/XMClib/XMC_Peripheral_Library_v2.1.16/XMCLib/inc/xmc_ccu4.h ****   XMC_CCU4_SLICE_PRESCALER_1  = 0U, /**< Slice Clock = fccu4 */
 297:/opt/XMClib/XMC_Peripheral_Library_v2.1.16/XMCLib/inc/xmc_ccu4.h ****   XMC_CCU4_SLICE_PRESCALER_2      , /**< Slice Clock = fccu4/2 */
 298:/opt/XMClib/XMC_Peripheral_Library_v2.1.16/XMCLib/inc/xmc_ccu4.h ****   XMC_CCU4_SLICE_PRESCALER_4      , /**< Slice Clock = fccu4/4 */
 299:/opt/XMClib/XMC_Peripheral_Library_v2.1.16/XMCLib/inc/xmc_ccu4.h ****   XMC_CCU4_SLICE_PRESCALER_8      , /**< Slice Clock = fccu4/8 */
 300:/opt/XMClib/XMC_Peripheral_Library_v2.1.16/XMCLib/inc/xmc_ccu4.h ****   XMC_CCU4_SLICE_PRESCALER_16     , /**< Slice Clock = fccu4/16 */
 301:/opt/XMClib/XMC_Peripheral_Library_v2.1.16/XMCLib/inc/xmc_ccu4.h ****   XMC_CCU4_SLICE_PRESCALER_32     , /**< Slice Clock = fccu4/32 */
 302:/opt/XMClib/XMC_Peripheral_Library_v2.1.16/XMCLib/inc/xmc_ccu4.h ****   XMC_CCU4_SLICE_PRESCALER_64     , /**< Slice Clock = fccu4/64 */
 303:/opt/XMClib/XMC_Peripheral_Library_v2.1.16/XMCLib/inc/xmc_ccu4.h ****   XMC_CCU4_SLICE_PRESCALER_128    , /**< Slice Clock = fccu4/128 */
 304:/opt/XMClib/XMC_Peripheral_Library_v2.1.16/XMCLib/inc/xmc_ccu4.h ****   XMC_CCU4_SLICE_PRESCALER_256    , /**< Slice Clock = fccu4/256 */
 305:/opt/XMClib/XMC_Peripheral_Library_v2.1.16/XMCLib/inc/xmc_ccu4.h ****   XMC_CCU4_SLICE_PRESCALER_512    , /**< Slice Clock = fccu4/512 */
 306:/opt/XMClib/XMC_Peripheral_Library_v2.1.16/XMCLib/inc/xmc_ccu4.h ****   XMC_CCU4_SLICE_PRESCALER_1024   , /**< Slice Clock = fccu4/1024 */
 307:/opt/XMClib/XMC_Peripheral_Library_v2.1.16/XMCLib/inc/xmc_ccu4.h ****   XMC_CCU4_SLICE_PRESCALER_2048   , /**< Slice Clock = fccu4/2048 */
 308:/opt/XMClib/XMC_Peripheral_Library_v2.1.16/XMCLib/inc/xmc_ccu4.h ****   XMC_CCU4_SLICE_PRESCALER_4096   , /**< Slice Clock = fccu4/4096 */
 309:/opt/XMClib/XMC_Peripheral_Library_v2.1.16/XMCLib/inc/xmc_ccu4.h ****   XMC_CCU4_SLICE_PRESCALER_8192   , /**< Slice Clock = fccu4/8192 */
 310:/opt/XMClib/XMC_Peripheral_Library_v2.1.16/XMCLib/inc/xmc_ccu4.h ****   XMC_CCU4_SLICE_PRESCALER_16384  , /**< Slice Clock = fccu4/16384 */
 311:/opt/XMClib/XMC_Peripheral_Library_v2.1.16/XMCLib/inc/xmc_ccu4.h ****   XMC_CCU4_SLICE_PRESCALER_32768    /**< Slice Clock = fccu4/32768 */
 312:/opt/XMClib/XMC_Peripheral_Library_v2.1.16/XMCLib/inc/xmc_ccu4.h **** } XMC_CCU4_SLICE_PRESCALER_t;
 313:/opt/XMClib/XMC_Peripheral_Library_v2.1.16/XMCLib/inc/xmc_ccu4.h **** 
 314:/opt/XMClib/XMC_Peripheral_Library_v2.1.16/XMCLib/inc/xmc_ccu4.h **** /**
 315:/opt/XMClib/XMC_Peripheral_Library_v2.1.16/XMCLib/inc/xmc_ccu4.h ****  *  External Function list
 316:/opt/XMClib/XMC_Peripheral_Library_v2.1.16/XMCLib/inc/xmc_ccu4.h ****  */ 
 317:/opt/XMClib/XMC_Peripheral_Library_v2.1.16/XMCLib/inc/xmc_ccu4.h **** typedef enum XMC_CCU4_SLICE_FUNCTION
 318:/opt/XMClib/XMC_Peripheral_Library_v2.1.16/XMCLib/inc/xmc_ccu4.h **** {
 319:/opt/XMClib/XMC_Peripheral_Library_v2.1.16/XMCLib/inc/xmc_ccu4.h ****   XMC_CCU4_SLICE_FUNCTION_START           = 0U, /**< Start function */
 320:/opt/XMClib/XMC_Peripheral_Library_v2.1.16/XMCLib/inc/xmc_ccu4.h ****   XMC_CCU4_SLICE_FUNCTION_STOP                , /**< Stop function */
 321:/opt/XMClib/XMC_Peripheral_Library_v2.1.16/XMCLib/inc/xmc_ccu4.h ****   XMC_CCU4_SLICE_FUNCTION_CAPTURE_EVENT0      , /**< Capture Event-0 function, CCycapt0 signal is u
 322:/opt/XMClib/XMC_Peripheral_Library_v2.1.16/XMCLib/inc/xmc_ccu4.h ****                                                      generation */
 323:/opt/XMClib/XMC_Peripheral_Library_v2.1.16/XMCLib/inc/xmc_ccu4.h ****   XMC_CCU4_SLICE_FUNCTION_CAPTURE_EVENT1      , /**< Capture Event-1 function, CCycapt1 signal is u
 324:/opt/XMClib/XMC_Peripheral_Library_v2.1.16/XMCLib/inc/xmc_ccu4.h ****                                                      generation */
 325:/opt/XMClib/XMC_Peripheral_Library_v2.1.16/XMCLib/inc/xmc_ccu4.h ****   XMC_CCU4_SLICE_FUNCTION_GATING              , /**< Gating function */
 326:/opt/XMClib/XMC_Peripheral_Library_v2.1.16/XMCLib/inc/xmc_ccu4.h ****   XMC_CCU4_SLICE_FUNCTION_DIRECTION           , /**< Direction function */
 327:/opt/XMClib/XMC_Peripheral_Library_v2.1.16/XMCLib/inc/xmc_ccu4.h ****   XMC_CCU4_SLICE_FUNCTION_LOAD                , /**< Load function */
 328:/opt/XMClib/XMC_Peripheral_Library_v2.1.16/XMCLib/inc/xmc_ccu4.h ****   XMC_CCU4_SLICE_FUNCTION_COUNT               , /**< Counting function */
 329:/opt/XMClib/XMC_Peripheral_Library_v2.1.16/XMCLib/inc/xmc_ccu4.h ****   XMC_CCU4_SLICE_FUNCTION_OVERRIDE            , /**< Override function */
 330:/opt/XMClib/XMC_Peripheral_Library_v2.1.16/XMCLib/inc/xmc_ccu4.h ****   XMC_CCU4_SLICE_FUNCTION_MODULATION          , /**< Modulation function */
 331:/opt/XMClib/XMC_Peripheral_Library_v2.1.16/XMCLib/inc/xmc_ccu4.h ****   XMC_CCU4_SLICE_FUNCTION_TRAP                  /**< Trap function */
 332:/opt/XMClib/XMC_Peripheral_Library_v2.1.16/XMCLib/inc/xmc_ccu4.h **** } XMC_CCU4_SLICE_FUNCTION_t;
 333:/opt/XMClib/XMC_Peripheral_Library_v2.1.16/XMCLib/inc/xmc_ccu4.h **** 
 334:/opt/XMClib/XMC_Peripheral_Library_v2.1.16/XMCLib/inc/xmc_ccu4.h **** /**
 335:/opt/XMClib/XMC_Peripheral_Library_v2.1.16/XMCLib/inc/xmc_ccu4.h ****  *  External Event list
 336:/opt/XMClib/XMC_Peripheral_Library_v2.1.16/XMCLib/inc/xmc_ccu4.h ****  */ 
 337:/opt/XMClib/XMC_Peripheral_Library_v2.1.16/XMCLib/inc/xmc_ccu4.h **** typedef enum XMC_CCU4_SLICE_EVENT
 338:/opt/XMClib/XMC_Peripheral_Library_v2.1.16/XMCLib/inc/xmc_ccu4.h **** {
 339:/opt/XMClib/XMC_Peripheral_Library_v2.1.16/XMCLib/inc/xmc_ccu4.h ****   XMC_CCU4_SLICE_EVENT_NONE  = 0U, /**< None */
 340:/opt/XMClib/XMC_Peripheral_Library_v2.1.16/XMCLib/inc/xmc_ccu4.h ****   XMC_CCU4_SLICE_EVENT_0         , /**< Event-0 */
 341:/opt/XMClib/XMC_Peripheral_Library_v2.1.16/XMCLib/inc/xmc_ccu4.h ****   XMC_CCU4_SLICE_EVENT_1         , /**< Event-1 */
 342:/opt/XMClib/XMC_Peripheral_Library_v2.1.16/XMCLib/inc/xmc_ccu4.h ****   XMC_CCU4_SLICE_EVENT_2           /**< Event-2 */
 343:/opt/XMClib/XMC_Peripheral_Library_v2.1.16/XMCLib/inc/xmc_ccu4.h **** } XMC_CCU4_SLICE_EVENT_t;
 344:/opt/XMClib/XMC_Peripheral_Library_v2.1.16/XMCLib/inc/xmc_ccu4.h **** 
 345:/opt/XMClib/XMC_Peripheral_Library_v2.1.16/XMCLib/inc/xmc_ccu4.h **** /**
 346:/opt/XMClib/XMC_Peripheral_Library_v2.1.16/XMCLib/inc/xmc_ccu4.h ****  *  External Event trigger criteria  - Edge sensitivity
 347:/opt/XMClib/XMC_Peripheral_Library_v2.1.16/XMCLib/inc/xmc_ccu4.h ****  */ 
 348:/opt/XMClib/XMC_Peripheral_Library_v2.1.16/XMCLib/inc/xmc_ccu4.h **** typedef enum XMC_CCU4_SLICE_EVENT_EDGE_SENSITIVITY
 349:/opt/XMClib/XMC_Peripheral_Library_v2.1.16/XMCLib/inc/xmc_ccu4.h **** {
 350:/opt/XMClib/XMC_Peripheral_Library_v2.1.16/XMCLib/inc/xmc_ccu4.h ****   XMC_CCU4_SLICE_EVENT_EDGE_SENSITIVITY_NONE         = 0U, /**< None */
 351:/opt/XMClib/XMC_Peripheral_Library_v2.1.16/XMCLib/inc/xmc_ccu4.h ****   XMC_CCU4_SLICE_EVENT_EDGE_SENSITIVITY_RISING_EDGE      , /**< Rising Edge of the input signal gen
 352:/opt/XMClib/XMC_Peripheral_Library_v2.1.16/XMCLib/inc/xmc_ccu4.h ****   XMC_CCU4_SLICE_EVENT_EDGE_SENSITIVITY_FALLING_EDGE     , /**< Falling Edge of the input signal ge
 353:/opt/XMClib/XMC_Peripheral_Library_v2.1.16/XMCLib/inc/xmc_ccu4.h ****                                                                 trigger */
 354:/opt/XMClib/XMC_Peripheral_Library_v2.1.16/XMCLib/inc/xmc_ccu4.h ****   XMC_CCU4_SLICE_EVENT_EDGE_SENSITIVITY_DUAL_EDGE          /**< Both Rising and Falling edges cause
 355:/opt/XMClib/XMC_Peripheral_Library_v2.1.16/XMCLib/inc/xmc_ccu4.h **** } XMC_CCU4_SLICE_EVENT_EDGE_SENSITIVITY_t;
 356:/opt/XMClib/XMC_Peripheral_Library_v2.1.16/XMCLib/inc/xmc_ccu4.h **** 
 357:/opt/XMClib/XMC_Peripheral_Library_v2.1.16/XMCLib/inc/xmc_ccu4.h **** /**
 358:/opt/XMClib/XMC_Peripheral_Library_v2.1.16/XMCLib/inc/xmc_ccu4.h ****  *  External Event trigger criteria  - Level sensitivity
 359:/opt/XMClib/XMC_Peripheral_Library_v2.1.16/XMCLib/inc/xmc_ccu4.h ****  */ 
 360:/opt/XMClib/XMC_Peripheral_Library_v2.1.16/XMCLib/inc/xmc_ccu4.h **** typedef enum XMC_CCU4_SLICE_EVENT_LEVEL_SENSITIVITY
 361:/opt/XMClib/XMC_Peripheral_Library_v2.1.16/XMCLib/inc/xmc_ccu4.h **** {
 362:/opt/XMClib/XMC_Peripheral_Library_v2.1.16/XMCLib/inc/xmc_ccu4.h ****   XMC_CCU4_SLICE_EVENT_LEVEL_SENSITIVITY_ACTIVE_HIGH = 0U, /**< Level sensitive functions react to 
 363:/opt/XMClib/XMC_Peripheral_Library_v2.1.16/XMCLib/inc/xmc_ccu4.h ****   XMC_CCU4_SLICE_EVENT_LEVEL_SENSITIVITY_ACTIVE_LOW  = 1U, /**< Level sensitive functions react to 
 364:/opt/XMClib/XMC_Peripheral_Library_v2.1.16/XMCLib/inc/xmc_ccu4.h ****   /* Below enum items can be utilised specific to the functionality */
 365:/opt/XMClib/XMC_Peripheral_Library_v2.1.16/XMCLib/inc/xmc_ccu4.h ****   XMC_CCU4_SLICE_EVENT_LEVEL_SENSITIVITY_COUNT_UP_ON_LOW = 0U, /**< Timer counts up, during Low sta
 366:/opt/XMClib/XMC_Peripheral_Library_v2.1.16/XMCLib/inc/xmc_ccu4.h ****   XMC_CCU4_SLICE_EVENT_LEVEL_SENSITIVITY_COUNT_UP_ON_HIGH = 1U /**< Timer counts up, during High st
 367:/opt/XMClib/XMC_Peripheral_Library_v2.1.16/XMCLib/inc/xmc_ccu4.h **** } XMC_CCU4_SLICE_EVENT_LEVEL_SENSITIVITY_t;
 368:/opt/XMClib/XMC_Peripheral_Library_v2.1.16/XMCLib/inc/xmc_ccu4.h **** 
 369:/opt/XMClib/XMC_Peripheral_Library_v2.1.16/XMCLib/inc/xmc_ccu4.h **** /**
 370:/opt/XMClib/XMC_Peripheral_Library_v2.1.16/XMCLib/inc/xmc_ccu4.h ****  *  Low pass filter Configuration. The External Event input should be stable for a selected number 
 371:/opt/XMClib/XMC_Peripheral_Library_v2.1.16/XMCLib/inc/xmc_ccu4.h ****  */ 
 372:/opt/XMClib/XMC_Peripheral_Library_v2.1.16/XMCLib/inc/xmc_ccu4.h **** typedef enum XMC_CCU4_SLICE_EVENT_FILTER
 373:/opt/XMClib/XMC_Peripheral_Library_v2.1.16/XMCLib/inc/xmc_ccu4.h **** {
 374:/opt/XMClib/XMC_Peripheral_Library_v2.1.16/XMCLib/inc/xmc_ccu4.h ****   XMC_CCU4_SLICE_EVENT_FILTER_DISABLED  = 0U, /**< No Low Pass Filter */
 375:/opt/XMClib/XMC_Peripheral_Library_v2.1.16/XMCLib/inc/xmc_ccu4.h ****   XMC_CCU4_SLICE_EVENT_FILTER_3_CYCLES      , /**< 3 clock cycles */
 376:/opt/XMClib/XMC_Peripheral_Library_v2.1.16/XMCLib/inc/xmc_ccu4.h ****   XMC_CCU4_SLICE_EVENT_FILTER_5_CYCLES      , /**< 5 clock cycles */
 377:/opt/XMClib/XMC_Peripheral_Library_v2.1.16/XMCLib/inc/xmc_ccu4.h ****   XMC_CCU4_SLICE_EVENT_FILTER_7_CYCLES        /**< 7 clock cycles */
 378:/opt/XMClib/XMC_Peripheral_Library_v2.1.16/XMCLib/inc/xmc_ccu4.h **** } XMC_CCU4_SLICE_EVENT_FILTER_t;
 379:/opt/XMClib/XMC_Peripheral_Library_v2.1.16/XMCLib/inc/xmc_ccu4.h **** 
 380:/opt/XMClib/XMC_Peripheral_Library_v2.1.16/XMCLib/inc/xmc_ccu4.h **** /**
 381:/opt/XMClib/XMC_Peripheral_Library_v2.1.16/XMCLib/inc/xmc_ccu4.h ****  *  External Event Input list. This list depicts the possible input connections to the CCU4 slice.
 382:/opt/XMClib/XMC_Peripheral_Library_v2.1.16/XMCLib/inc/xmc_ccu4.h ****  *  Interconnects are specific to each device.
 383:/opt/XMClib/XMC_Peripheral_Library_v2.1.16/XMCLib/inc/xmc_ccu4.h ****  */ 
 384:/opt/XMClib/XMC_Peripheral_Library_v2.1.16/XMCLib/inc/xmc_ccu4.h **** typedef uint8_t XMC_CCU4_SLICE_INPUT_t;
 385:/opt/XMClib/XMC_Peripheral_Library_v2.1.16/XMCLib/inc/xmc_ccu4.h **** 
 386:/opt/XMClib/XMC_Peripheral_Library_v2.1.16/XMCLib/inc/xmc_ccu4.h **** /**
 387:/opt/XMClib/XMC_Peripheral_Library_v2.1.16/XMCLib/inc/xmc_ccu4.h ****  * Actions that can be performed upon detection of an external Timer STOP event
 388:/opt/XMClib/XMC_Peripheral_Library_v2.1.16/XMCLib/inc/xmc_ccu4.h ****  */ 
 389:/opt/XMClib/XMC_Peripheral_Library_v2.1.16/XMCLib/inc/xmc_ccu4.h **** typedef enum XMC_CCU4_SLICE_END_MODE
 390:/opt/XMClib/XMC_Peripheral_Library_v2.1.16/XMCLib/inc/xmc_ccu4.h **** {
 391:/opt/XMClib/XMC_Peripheral_Library_v2.1.16/XMCLib/inc/xmc_ccu4.h ****   XMC_CCU4_SLICE_END_MODE_TIMER_STOP       = 0U, /**< Stops the timer, without clearing TIMER regis
 392:/opt/XMClib/XMC_Peripheral_Library_v2.1.16/XMCLib/inc/xmc_ccu4.h ****   XMC_CCU4_SLICE_END_MODE_TIMER_CLEAR          , /**< Without stopping timer, clears the TIMER regi
 393:/opt/XMClib/XMC_Peripheral_Library_v2.1.16/XMCLib/inc/xmc_ccu4.h ****   XMC_CCU4_SLICE_END_MODE_TIMER_STOP_CLEAR       /**< Stops the timer and clears the TIMER register
 394:/opt/XMClib/XMC_Peripheral_Library_v2.1.16/XMCLib/inc/xmc_ccu4.h **** } XMC_CCU4_SLICE_END_MODE_t;
 395:/opt/XMClib/XMC_Peripheral_Library_v2.1.16/XMCLib/inc/xmc_ccu4.h **** 
 396:/opt/XMClib/XMC_Peripheral_Library_v2.1.16/XMCLib/inc/xmc_ccu4.h **** /**
 397:/opt/XMClib/XMC_Peripheral_Library_v2.1.16/XMCLib/inc/xmc_ccu4.h ****  *  Actions that can be performed upon detection of an external Timer START event
 398:/opt/XMClib/XMC_Peripheral_Library_v2.1.16/XMCLib/inc/xmc_ccu4.h ****  */ 
 399:/opt/XMClib/XMC_Peripheral_Library_v2.1.16/XMCLib/inc/xmc_ccu4.h **** typedef enum XMC_CCU4_SLICE_START_MODE
 400:/opt/XMClib/XMC_Peripheral_Library_v2.1.16/XMCLib/inc/xmc_ccu4.h **** {
 401:/opt/XMClib/XMC_Peripheral_Library_v2.1.16/XMCLib/inc/xmc_ccu4.h ****   XMC_CCU4_SLICE_START_MODE_TIMER_START       = 0U, /**< Start the timer from the current count of 
 402:/opt/XMClib/XMC_Peripheral_Library_v2.1.16/XMCLib/inc/xmc_ccu4.h ****   XMC_CCU4_SLICE_START_MODE_TIMER_START_CLEAR       /**< Clears the TIMER register and start the ti
 403:/opt/XMClib/XMC_Peripheral_Library_v2.1.16/XMCLib/inc/xmc_ccu4.h **** } XMC_CCU4_SLICE_START_MODE_t;
 404:/opt/XMClib/XMC_Peripheral_Library_v2.1.16/XMCLib/inc/xmc_ccu4.h **** 
 405:/opt/XMClib/XMC_Peripheral_Library_v2.1.16/XMCLib/inc/xmc_ccu4.h **** /**
 406:/opt/XMClib/XMC_Peripheral_Library_v2.1.16/XMCLib/inc/xmc_ccu4.h ****  *  Modulation of timer output signals
 407:/opt/XMClib/XMC_Peripheral_Library_v2.1.16/XMCLib/inc/xmc_ccu4.h ****  */ 
 408:/opt/XMClib/XMC_Peripheral_Library_v2.1.16/XMCLib/inc/xmc_ccu4.h **** typedef enum XMC_CCU4_SLICE_MODULATION_MODE
 409:/opt/XMClib/XMC_Peripheral_Library_v2.1.16/XMCLib/inc/xmc_ccu4.h **** {
 410:/opt/XMClib/XMC_Peripheral_Library_v2.1.16/XMCLib/inc/xmc_ccu4.h ****   XMC_CCU4_SLICE_MODULATION_MODE_CLEAR_ST_OUT  = 0U, /**< Clear ST and OUT signals */
 411:/opt/XMClib/XMC_Peripheral_Library_v2.1.16/XMCLib/inc/xmc_ccu4.h ****   XMC_CCU4_SLICE_MODULATION_MODE_CLEAR_OUT           /**< Clear only the OUT signal */
 412:/opt/XMClib/XMC_Peripheral_Library_v2.1.16/XMCLib/inc/xmc_ccu4.h **** } XMC_CCU4_SLICE_MODULATION_MODE_t;
 413:/opt/XMClib/XMC_Peripheral_Library_v2.1.16/XMCLib/inc/xmc_ccu4.h **** 
 414:/opt/XMClib/XMC_Peripheral_Library_v2.1.16/XMCLib/inc/xmc_ccu4.h **** /**
 415:/opt/XMClib/XMC_Peripheral_Library_v2.1.16/XMCLib/inc/xmc_ccu4.h ****  *  Trap exit mode
 416:/opt/XMClib/XMC_Peripheral_Library_v2.1.16/XMCLib/inc/xmc_ccu4.h ****  */ 
 417:/opt/XMClib/XMC_Peripheral_Library_v2.1.16/XMCLib/inc/xmc_ccu4.h **** typedef enum XMC_CCU4_SLICE_TRAP_EXIT_MODE
 418:/opt/XMClib/XMC_Peripheral_Library_v2.1.16/XMCLib/inc/xmc_ccu4.h **** {
 419:/opt/XMClib/XMC_Peripheral_Library_v2.1.16/XMCLib/inc/xmc_ccu4.h ****   XMC_CCU4_SLICE_TRAP_EXIT_MODE_AUTOMATIC = 0U, /**< Clear trap state as soon as the trap signal is
 420:/opt/XMClib/XMC_Peripheral_Library_v2.1.16/XMCLib/inc/xmc_ccu4.h ****   XMC_CCU4_SLICE_TRAP_EXIT_MODE_SW              /**< Clear only when acknowledged by software */
 421:/opt/XMClib/XMC_Peripheral_Library_v2.1.16/XMCLib/inc/xmc_ccu4.h **** } XMC_CCU4_SLICE_TRAP_EXIT_MODE_t;
 422:/opt/XMClib/XMC_Peripheral_Library_v2.1.16/XMCLib/inc/xmc_ccu4.h **** 
 423:/opt/XMClib/XMC_Peripheral_Library_v2.1.16/XMCLib/inc/xmc_ccu4.h **** /**
 424:/opt/XMClib/XMC_Peripheral_Library_v2.1.16/XMCLib/inc/xmc_ccu4.h ****  *  Timer clear on capture
 425:/opt/XMClib/XMC_Peripheral_Library_v2.1.16/XMCLib/inc/xmc_ccu4.h ****  */ 
 426:/opt/XMClib/XMC_Peripheral_Library_v2.1.16/XMCLib/inc/xmc_ccu4.h **** typedef enum XMC_CCU4_SLICE_TIMER_CLEAR_MODE
 427:/opt/XMClib/XMC_Peripheral_Library_v2.1.16/XMCLib/inc/xmc_ccu4.h **** {
 428:/opt/XMClib/XMC_Peripheral_Library_v2.1.16/XMCLib/inc/xmc_ccu4.h ****   XMC_CCU4_SLICE_TIMER_CLEAR_MODE_NEVER    = 0U, /**< Never clear the timer on any capture event */
 429:/opt/XMClib/XMC_Peripheral_Library_v2.1.16/XMCLib/inc/xmc_ccu4.h ****   XMC_CCU4_SLICE_TIMER_CLEAR_MODE_CAP_HIGH     , /**< Clear only when timer value has been captured
 430:/opt/XMClib/XMC_Peripheral_Library_v2.1.16/XMCLib/inc/xmc_ccu4.h ****   XMC_CCU4_SLICE_TIMER_CLEAR_MODE_CAP_LOW      , /**< Clear only when timer value has been captured
 431:/opt/XMClib/XMC_Peripheral_Library_v2.1.16/XMCLib/inc/xmc_ccu4.h ****   XMC_CCU4_SLICE_TIMER_CLEAR_MODE_ALWAYS         /**< Always clear the timer upon detection of any 
 432:/opt/XMClib/XMC_Peripheral_Library_v2.1.16/XMCLib/inc/xmc_ccu4.h **** } XMC_CCU4_SLICE_TIMER_CLEAR_MODE_t;
 433:/opt/XMClib/XMC_Peripheral_Library_v2.1.16/XMCLib/inc/xmc_ccu4.h **** 
 434:/opt/XMClib/XMC_Peripheral_Library_v2.1.16/XMCLib/inc/xmc_ccu4.h **** /**
 435:/opt/XMClib/XMC_Peripheral_Library_v2.1.16/XMCLib/inc/xmc_ccu4.h ****  *  Multi Channel Shadow transfer request configuration options
 436:/opt/XMClib/XMC_Peripheral_Library_v2.1.16/XMCLib/inc/xmc_ccu4.h ****  */ 
 437:/opt/XMClib/XMC_Peripheral_Library_v2.1.16/XMCLib/inc/xmc_ccu4.h **** typedef enum XMC_CCU4_SLICE_MCMS_ACTION
 438:/opt/XMClib/XMC_Peripheral_Library_v2.1.16/XMCLib/inc/xmc_ccu4.h **** {
 439:/opt/XMClib/XMC_Peripheral_Library_v2.1.16/XMCLib/inc/xmc_ccu4.h ****   XMC_CCU4_SLICE_MCMS_ACTION_TRANSFER_PR_CR          = 0U, /**< Transfer Compare and Period Shadow 
 440:/opt/XMClib/XMC_Peripheral_Library_v2.1.16/XMCLib/inc/xmc_ccu4.h ****                                                                 the actual registers upon MCS xfer 
 441:/opt/XMClib/XMC_Peripheral_Library_v2.1.16/XMCLib/inc/xmc_ccu4.h ****   XMC_CCU4_SLICE_MCMS_ACTION_TRANSFER_PR_CR_PCMP     = 1U, /**< Transfer Compare, Period and Presca
 442:/opt/XMClib/XMC_Peripheral_Library_v2.1.16/XMCLib/inc/xmc_ccu4.h ****                                                                 register values to the actual regis
 443:/opt/XMClib/XMC_Peripheral_Library_v2.1.16/XMCLib/inc/xmc_ccu4.h ****                                                                 request */
 444:/opt/XMClib/XMC_Peripheral_Library_v2.1.16/XMCLib/inc/xmc_ccu4.h ****   XMC_CCU4_SLICE_MCMS_ACTION_TRANSFER_PR_CR_PCMP_DIT = 3U  /**< Transfer Compare, Period ,Prescaler
 445:/opt/XMClib/XMC_Peripheral_Library_v2.1.16/XMCLib/inc/xmc_ccu4.h ****                                                                 Compare register values to the actu
 446:/opt/XMClib/XMC_Peripheral_Library_v2.1.16/XMCLib/inc/xmc_ccu4.h ****                                                                 MCS xfer request */
 447:/opt/XMClib/XMC_Peripheral_Library_v2.1.16/XMCLib/inc/xmc_ccu4.h **** } XMC_CCU4_SLICE_MCMS_ACTION_t;
 448:/opt/XMClib/XMC_Peripheral_Library_v2.1.16/XMCLib/inc/xmc_ccu4.h **** 
 449:/opt/XMClib/XMC_Peripheral_Library_v2.1.16/XMCLib/inc/xmc_ccu4.h **** /**
 450:/opt/XMClib/XMC_Peripheral_Library_v2.1.16/XMCLib/inc/xmc_ccu4.h ****  * Available Interrupt Event Ids
 451:/opt/XMClib/XMC_Peripheral_Library_v2.1.16/XMCLib/inc/xmc_ccu4.h ****  */ 
 452:/opt/XMClib/XMC_Peripheral_Library_v2.1.16/XMCLib/inc/xmc_ccu4.h **** typedef enum XMC_CCU4_SLICE_IRQ_ID
 453:/opt/XMClib/XMC_Peripheral_Library_v2.1.16/XMCLib/inc/xmc_ccu4.h **** {
 454:/opt/XMClib/XMC_Peripheral_Library_v2.1.16/XMCLib/inc/xmc_ccu4.h ****   XMC_CCU4_SLICE_IRQ_ID_PERIOD_MATCH       = 0U , /**< Period match counting up */
 455:/opt/XMClib/XMC_Peripheral_Library_v2.1.16/XMCLib/inc/xmc_ccu4.h ****   XMC_CCU4_SLICE_IRQ_ID_ONE_MATCH          = 1U , /**< Period match -> One match counting down */
 456:/opt/XMClib/XMC_Peripheral_Library_v2.1.16/XMCLib/inc/xmc_ccu4.h ****   XMC_CCU4_SLICE_IRQ_ID_COMPARE_MATCH_UP   = 2U , /**< Compare match counting up */
 457:/opt/XMClib/XMC_Peripheral_Library_v2.1.16/XMCLib/inc/xmc_ccu4.h ****   XMC_CCU4_SLICE_IRQ_ID_COMPARE_MATCH_DOWN = 3U , /**< Compare match counting down */
 458:/opt/XMClib/XMC_Peripheral_Library_v2.1.16/XMCLib/inc/xmc_ccu4.h ****   XMC_CCU4_SLICE_IRQ_ID_EVENT0             = 8U , /**< Event-0 occurrence */
 459:/opt/XMClib/XMC_Peripheral_Library_v2.1.16/XMCLib/inc/xmc_ccu4.h ****   XMC_CCU4_SLICE_IRQ_ID_EVENT1             = 9U , /**< Event-1 occurrence */
 460:/opt/XMClib/XMC_Peripheral_Library_v2.1.16/XMCLib/inc/xmc_ccu4.h ****   XMC_CCU4_SLICE_IRQ_ID_EVENT2             = 10U, /**< Event-2 occurrence */
 461:/opt/XMClib/XMC_Peripheral_Library_v2.1.16/XMCLib/inc/xmc_ccu4.h ****   XMC_CCU4_SLICE_IRQ_ID_TRAP               = 11U  /**< Trap occurrence */
 462:/opt/XMClib/XMC_Peripheral_Library_v2.1.16/XMCLib/inc/xmc_ccu4.h **** } XMC_CCU4_SLICE_IRQ_ID_t;
 463:/opt/XMClib/XMC_Peripheral_Library_v2.1.16/XMCLib/inc/xmc_ccu4.h **** 
 464:/opt/XMClib/XMC_Peripheral_Library_v2.1.16/XMCLib/inc/xmc_ccu4.h **** /**
 465:/opt/XMClib/XMC_Peripheral_Library_v2.1.16/XMCLib/inc/xmc_ccu4.h ****  * Available Interrupt Event Ids, which is added to support multi event APIs
 466:/opt/XMClib/XMC_Peripheral_Library_v2.1.16/XMCLib/inc/xmc_ccu4.h ****  */
 467:/opt/XMClib/XMC_Peripheral_Library_v2.1.16/XMCLib/inc/xmc_ccu4.h **** typedef enum XMC_CCU4_SLICE_MULTI_IRQ_ID
 468:/opt/XMClib/XMC_Peripheral_Library_v2.1.16/XMCLib/inc/xmc_ccu4.h **** {
 469:/opt/XMClib/XMC_Peripheral_Library_v2.1.16/XMCLib/inc/xmc_ccu4.h ****   XMC_CCU4_SLICE_MULTI_IRQ_ID_PERIOD_MATCH       = 0x1U,   /**< Period match counting up */
 470:/opt/XMClib/XMC_Peripheral_Library_v2.1.16/XMCLib/inc/xmc_ccu4.h ****   XMC_CCU4_SLICE_MULTI_IRQ_ID_ONE_MATCH          = 0x2U,   /**< Period match -> One match counting 
 471:/opt/XMClib/XMC_Peripheral_Library_v2.1.16/XMCLib/inc/xmc_ccu4.h ****   XMC_CCU4_SLICE_MULTI_IRQ_ID_COMPARE_MATCH_UP   = 0x4U,   /**< Compare match counting up */
 472:/opt/XMClib/XMC_Peripheral_Library_v2.1.16/XMCLib/inc/xmc_ccu4.h ****   XMC_CCU4_SLICE_MULTI_IRQ_ID_COMPARE_MATCH_DOWN = 0x8U,   /**< Compare match counting down */
 473:/opt/XMClib/XMC_Peripheral_Library_v2.1.16/XMCLib/inc/xmc_ccu4.h ****   XMC_CCU4_SLICE_MULTI_IRQ_ID_EVENT0             = 0x100U, /**< Event-0 occurrence */
 474:/opt/XMClib/XMC_Peripheral_Library_v2.1.16/XMCLib/inc/xmc_ccu4.h ****   XMC_CCU4_SLICE_MULTI_IRQ_ID_EVENT1             = 0x200U, /**< Event-1 occurrence */
 475:/opt/XMClib/XMC_Peripheral_Library_v2.1.16/XMCLib/inc/xmc_ccu4.h ****   XMC_CCU4_SLICE_MULTI_IRQ_ID_EVENT2             = 0x400U, /**< Event-2 occurrence */
 476:/opt/XMClib/XMC_Peripheral_Library_v2.1.16/XMCLib/inc/xmc_ccu4.h **** } XMC_CCU4_SLICE_MULTI_IRQ_ID_t;
 477:/opt/XMClib/XMC_Peripheral_Library_v2.1.16/XMCLib/inc/xmc_ccu4.h **** 
 478:/opt/XMClib/XMC_Peripheral_Library_v2.1.16/XMCLib/inc/xmc_ccu4.h **** /**
 479:/opt/XMClib/XMC_Peripheral_Library_v2.1.16/XMCLib/inc/xmc_ccu4.h ****  * Service Request Lines for CCU4. Event are mapped to these SR lines and these are used to generat
 480:/opt/XMClib/XMC_Peripheral_Library_v2.1.16/XMCLib/inc/xmc_ccu4.h ****  */ 
 481:/opt/XMClib/XMC_Peripheral_Library_v2.1.16/XMCLib/inc/xmc_ccu4.h **** typedef enum XMC_CCU4_SLICE_SR_ID
 482:/opt/XMClib/XMC_Peripheral_Library_v2.1.16/XMCLib/inc/xmc_ccu4.h **** {
 483:/opt/XMClib/XMC_Peripheral_Library_v2.1.16/XMCLib/inc/xmc_ccu4.h ****   XMC_CCU4_SLICE_SR_ID_0    = 0U, /**< Service Request Line-0 selected  */
 484:/opt/XMClib/XMC_Peripheral_Library_v2.1.16/XMCLib/inc/xmc_ccu4.h ****   XMC_CCU4_SLICE_SR_ID_1        , /**< Service Request Line-1 selected  */
 485:/opt/XMClib/XMC_Peripheral_Library_v2.1.16/XMCLib/inc/xmc_ccu4.h ****   XMC_CCU4_SLICE_SR_ID_2        , /**< Service Request Line-2 selected  */
 486:/opt/XMClib/XMC_Peripheral_Library_v2.1.16/XMCLib/inc/xmc_ccu4.h ****   XMC_CCU4_SLICE_SR_ID_3          /**< Service Request Line-3 selected  */
 487:/opt/XMClib/XMC_Peripheral_Library_v2.1.16/XMCLib/inc/xmc_ccu4.h **** } XMC_CCU4_SLICE_SR_ID_t;
 488:/opt/XMClib/XMC_Peripheral_Library_v2.1.16/XMCLib/inc/xmc_ccu4.h **** 
 489:/opt/XMClib/XMC_Peripheral_Library_v2.1.16/XMCLib/inc/xmc_ccu4.h **** /**
 490:/opt/XMClib/XMC_Peripheral_Library_v2.1.16/XMCLib/inc/xmc_ccu4.h ****  *  Slice shadow transfer options.
 491:/opt/XMClib/XMC_Peripheral_Library_v2.1.16/XMCLib/inc/xmc_ccu4.h ****  */
 492:/opt/XMClib/XMC_Peripheral_Library_v2.1.16/XMCLib/inc/xmc_ccu4.h **** typedef enum XMC_CCU4_SHADOW_TRANSFER
 493:/opt/XMClib/XMC_Peripheral_Library_v2.1.16/XMCLib/inc/xmc_ccu4.h **** {
 494:/opt/XMClib/XMC_Peripheral_Library_v2.1.16/XMCLib/inc/xmc_ccu4.h ****   XMC_CCU4_SHADOW_TRANSFER_SLICE_0            = CCU4_GCSS_S0SE_Msk, /**< Transfer Period, Compare a
 495:/opt/XMClib/XMC_Peripheral_Library_v2.1.16/XMCLib/inc/xmc_ccu4.h ****                                                                           shadow register values to
 496:/opt/XMClib/XMC_Peripheral_Library_v2.1.16/XMCLib/inc/xmc_ccu4.h ****                                                                           SLICE-0 */
 497:/opt/XMClib/XMC_Peripheral_Library_v2.1.16/XMCLib/inc/xmc_ccu4.h ****   XMC_CCU4_SHADOW_TRANSFER_DITHER_SLICE_0     = CCU4_GCSS_S0DSE_Msk, /**< Transfer Dither compare s
 498:/opt/XMClib/XMC_Peripheral_Library_v2.1.16/XMCLib/inc/xmc_ccu4.h ****                                                                           to actual register for SL
 499:/opt/XMClib/XMC_Peripheral_Library_v2.1.16/XMCLib/inc/xmc_ccu4.h ****   XMC_CCU4_SHADOW_TRANSFER_PRESCALER_SLICE_0  = CCU4_GCSS_S0PSE_Msk, /**< Transfer Prescaler shadow
 500:/opt/XMClib/XMC_Peripheral_Library_v2.1.16/XMCLib/inc/xmc_ccu4.h ****                                                                           actual register for SLICE
 501:/opt/XMClib/XMC_Peripheral_Library_v2.1.16/XMCLib/inc/xmc_ccu4.h ****   XMC_CCU4_SHADOW_TRANSFER_SLICE_1            = CCU4_GCSS_S1SE_Msk, /**< Transfer Period, Compare a
 502:/opt/XMClib/XMC_Peripheral_Library_v2.1.16/XMCLib/inc/xmc_ccu4.h ****                                                                           shadow register values to
 503:/opt/XMClib/XMC_Peripheral_Library_v2.1.16/XMCLib/inc/xmc_ccu4.h ****                                                                           SLICE-1 */
 504:/opt/XMClib/XMC_Peripheral_Library_v2.1.16/XMCLib/inc/xmc_ccu4.h ****   XMC_CCU4_SHADOW_TRANSFER_DITHER_SLICE_1     = CCU4_GCSS_S1DSE_Msk, /**< Transfer Dither compare s
 505:/opt/XMClib/XMC_Peripheral_Library_v2.1.16/XMCLib/inc/xmc_ccu4.h ****                                                                           to actual registers for S
 506:/opt/XMClib/XMC_Peripheral_Library_v2.1.16/XMCLib/inc/xmc_ccu4.h ****   XMC_CCU4_SHADOW_TRANSFER_PRESCALER_SLICE_1  = CCU4_GCSS_S1PSE_Msk, /**< Transfer Prescaler shadow
 507:/opt/XMClib/XMC_Peripheral_Library_v2.1.16/XMCLib/inc/xmc_ccu4.h ****                                                                           actual register for SLICE
 508:/opt/XMClib/XMC_Peripheral_Library_v2.1.16/XMCLib/inc/xmc_ccu4.h ****   XMC_CCU4_SHADOW_TRANSFER_SLICE_2            = CCU4_GCSS_S2SE_Msk, /**< Transfer Period, Compare a
 509:/opt/XMClib/XMC_Peripheral_Library_v2.1.16/XMCLib/inc/xmc_ccu4.h ****                                                                           shadow register values to
 510:/opt/XMClib/XMC_Peripheral_Library_v2.1.16/XMCLib/inc/xmc_ccu4.h ****                                                                           SLICE-2 */
 511:/opt/XMClib/XMC_Peripheral_Library_v2.1.16/XMCLib/inc/xmc_ccu4.h ****   XMC_CCU4_SHADOW_TRANSFER_DITHER_SLICE_2     = CCU4_GCSS_S2DSE_Msk, /**< Transfer Dither compare s
 512:/opt/XMClib/XMC_Peripheral_Library_v2.1.16/XMCLib/inc/xmc_ccu4.h ****                                                                           to actual register for SL
 513:/opt/XMClib/XMC_Peripheral_Library_v2.1.16/XMCLib/inc/xmc_ccu4.h ****   XMC_CCU4_SHADOW_TRANSFER_PRESCALER_SLICE_2  = CCU4_GCSS_S2PSE_Msk, /**< Transfer Prescaler shadow
 514:/opt/XMClib/XMC_Peripheral_Library_v2.1.16/XMCLib/inc/xmc_ccu4.h ****                                                                           actual register for SLICE
 515:/opt/XMClib/XMC_Peripheral_Library_v2.1.16/XMCLib/inc/xmc_ccu4.h ****   XMC_CCU4_SHADOW_TRANSFER_SLICE_3            = CCU4_GCSS_S3SE_Msk, /**< Transfer Period, Compare a
 516:/opt/XMClib/XMC_Peripheral_Library_v2.1.16/XMCLib/inc/xmc_ccu4.h ****                                                                           shadow register values to
 517:/opt/XMClib/XMC_Peripheral_Library_v2.1.16/XMCLib/inc/xmc_ccu4.h ****                                                                           SLICE-3 */
 518:/opt/XMClib/XMC_Peripheral_Library_v2.1.16/XMCLib/inc/xmc_ccu4.h ****   XMC_CCU4_SHADOW_TRANSFER_DITHER_SLICE_3     = CCU4_GCSS_S3DSE_Msk, /**< Transfer Dither compare s
 519:/opt/XMClib/XMC_Peripheral_Library_v2.1.16/XMCLib/inc/xmc_ccu4.h ****                                                                           to actual register for SL
 520:/opt/XMClib/XMC_Peripheral_Library_v2.1.16/XMCLib/inc/xmc_ccu4.h ****   XMC_CCU4_SHADOW_TRANSFER_PRESCALER_SLICE_3  = CCU4_GCSS_S3PSE_Msk  /**< Transfer Prescaler shadow
 521:/opt/XMClib/XMC_Peripheral_Library_v2.1.16/XMCLib/inc/xmc_ccu4.h ****                                                                           actual register for SLICE
 522:/opt/XMClib/XMC_Peripheral_Library_v2.1.16/XMCLib/inc/xmc_ccu4.h **** } XMC_CCU4_SHADOW_TRANSFER_t;
 523:/opt/XMClib/XMC_Peripheral_Library_v2.1.16/XMCLib/inc/xmc_ccu4.h **** 
 524:/opt/XMClib/XMC_Peripheral_Library_v2.1.16/XMCLib/inc/xmc_ccu4.h **** #if defined(CCU4V3) || defined(DOXYGEN)/* Defined for XMC1400 devices only */
 525:/opt/XMClib/XMC_Peripheral_Library_v2.1.16/XMCLib/inc/xmc_ccu4.h **** /**
 526:/opt/XMClib/XMC_Peripheral_Library_v2.1.16/XMCLib/inc/xmc_ccu4.h ****  *  Slice shadow transfer mode options.
 527:/opt/XMClib/XMC_Peripheral_Library_v2.1.16/XMCLib/inc/xmc_ccu4.h ****  * @note Only available for XMC1400 series
 528:/opt/XMClib/XMC_Peripheral_Library_v2.1.16/XMCLib/inc/xmc_ccu4.h ****  */
 529:/opt/XMClib/XMC_Peripheral_Library_v2.1.16/XMCLib/inc/xmc_ccu4.h **** typedef enum XMC_CCU4_SLICE_SHADOW_TRANSFER_MODE
 530:/opt/XMClib/XMC_Peripheral_Library_v2.1.16/XMCLib/inc/xmc_ccu4.h **** {
 531:/opt/XMClib/XMC_Peripheral_Library_v2.1.16/XMCLib/inc/xmc_ccu4.h ****   XMC_CCU4_SLICE_SHADOW_TRANSFER_MODE_IN_PERIOD_MATCH_AND_ONE_MATCH = 0U,  /**< Shadow transfer is 
 532:/opt/XMClib/XMC_Peripheral_Library_v2.1.16/XMCLib/inc/xmc_ccu4.h ****                                                                                 One match. */
 533:/opt/XMClib/XMC_Peripheral_Library_v2.1.16/XMCLib/inc/xmc_ccu4.h ****   XMC_CCU4_SLICE_SHADOW_TRANSFER_MODE_ONLY_IN_PERIOD_MATCH = 1U,  /**< Shadow transfer is done only
 534:/opt/XMClib/XMC_Peripheral_Library_v2.1.16/XMCLib/inc/xmc_ccu4.h ****   XMC_CCU4_SLICE_SHADOW_TRANSFER_MODE_ONLY_IN_ONE_MATCH = 2U  /**< Shadow transfer is done only in 
 535:/opt/XMClib/XMC_Peripheral_Library_v2.1.16/XMCLib/inc/xmc_ccu4.h **** } XMC_CCU4_SLICE_SHADOW_TRANSFER_MODE_t; 
 536:/opt/XMClib/XMC_Peripheral_Library_v2.1.16/XMCLib/inc/xmc_ccu4.h ****   
 537:/opt/XMClib/XMC_Peripheral_Library_v2.1.16/XMCLib/inc/xmc_ccu4.h ****   
 538:/opt/XMClib/XMC_Peripheral_Library_v2.1.16/XMCLib/inc/xmc_ccu4.h **** /**
 539:/opt/XMClib/XMC_Peripheral_Library_v2.1.16/XMCLib/inc/xmc_ccu4.h ****  *  Immediate write into configuration register
 540:/opt/XMClib/XMC_Peripheral_Library_v2.1.16/XMCLib/inc/xmc_ccu4.h ****  *  @note Only available for XMC1400 series
 541:/opt/XMClib/XMC_Peripheral_Library_v2.1.16/XMCLib/inc/xmc_ccu4.h ****  */
 542:/opt/XMClib/XMC_Peripheral_Library_v2.1.16/XMCLib/inc/xmc_ccu4.h **** typedef enum XMC_CCU4_SLICE_WRITE_INTO
 543:/opt/XMClib/XMC_Peripheral_Library_v2.1.16/XMCLib/inc/xmc_ccu4.h **** {
 544:/opt/XMClib/XMC_Peripheral_Library_v2.1.16/XMCLib/inc/xmc_ccu4.h ****   XMC_CCU4_SLICE_WRITE_INTO_PERIOD_CONFIGURATION = CCU4_CC4_STC_IRPC_Msk,                  /**< Imm
 545:/opt/XMClib/XMC_Peripheral_Library_v2.1.16/XMCLib/inc/xmc_ccu4.h ****                                                                                                 Wri
 546:/opt/XMClib/XMC_Peripheral_Library_v2.1.16/XMCLib/inc/xmc_ccu4.h ****                                                                                                 Con
 547:/opt/XMClib/XMC_Peripheral_Library_v2.1.16/XMCLib/inc/xmc_ccu4.h ****   XMC_CCU4_SLICE_WRITE_INTO_COMPARE_CONFIGURATION = CCU4_CC4_STC_IRCC_Msk,                 /**< Imm
 548:/opt/XMClib/XMC_Peripheral_Library_v2.1.16/XMCLib/inc/xmc_ccu4.h ****                                                                                                 Wri
 549:/opt/XMClib/XMC_Peripheral_Library_v2.1.16/XMCLib/inc/xmc_ccu4.h ****                                                                                                 Con
 550:/opt/XMClib/XMC_Peripheral_Library_v2.1.16/XMCLib/inc/xmc_ccu4.h ****   XMC_CCU4_SLICE_WRITE_INTO_PASSIVE_LEVEL_CONFIGURATION = CCU4_CC4_STC_IRLC_Msk,           /**< Imm
 551:/opt/XMClib/XMC_Peripheral_Library_v2.1.16/XMCLib/inc/xmc_ccu4.h ****                                                                                                 Wri
 552:/opt/XMClib/XMC_Peripheral_Library_v2.1.16/XMCLib/inc/xmc_ccu4.h **** 	                                                                                            Config
 553:/opt/XMClib/XMC_Peripheral_Library_v2.1.16/XMCLib/inc/xmc_ccu4.h ****   XMC_CCU4_SLICE_WRITE_INTO_DITHER_VALUE_CONFIGURATION = CCU4_CC4_STC_IRDC_Msk,            /**< Imm
 554:/opt/XMClib/XMC_Peripheral_Library_v2.1.16/XMCLib/inc/xmc_ccu4.h ****                                                                                                 Wri
 555:/opt/XMClib/XMC_Peripheral_Library_v2.1.16/XMCLib/inc/xmc_ccu4.h **** 	                                                                                            Config
 556:/opt/XMClib/XMC_Peripheral_Library_v2.1.16/XMCLib/inc/xmc_ccu4.h ****   XMC_CCU4_SLICE_WRITE_INTO_FLOATING_PRESCALER_VALUE_CONFIGURATION = CCU4_CC4_STC_IRFC_Msk /**< Imm
 557:/opt/XMClib/XMC_Peripheral_Library_v2.1.16/XMCLib/inc/xmc_ccu4.h ****                                                                                                 Wri
 558:/opt/XMClib/XMC_Peripheral_Library_v2.1.16/XMCLib/inc/xmc_ccu4.h ****                                                                                                 Val
 559:/opt/XMClib/XMC_Peripheral_Library_v2.1.16/XMCLib/inc/xmc_ccu4.h **** } XMC_CCU4_SLICE_WRITE_INTO_t;
 560:/opt/XMClib/XMC_Peripheral_Library_v2.1.16/XMCLib/inc/xmc_ccu4.h **** 
 561:/opt/XMClib/XMC_Peripheral_Library_v2.1.16/XMCLib/inc/xmc_ccu4.h **** 
 562:/opt/XMClib/XMC_Peripheral_Library_v2.1.16/XMCLib/inc/xmc_ccu4.h **** /**
 563:/opt/XMClib/XMC_Peripheral_Library_v2.1.16/XMCLib/inc/xmc_ccu4.h ****  *  Automatic Shadow Transfer request when writing into shadow register
 564:/opt/XMClib/XMC_Peripheral_Library_v2.1.16/XMCLib/inc/xmc_ccu4.h ****  *  @note Only available for XMC1400 series
 565:/opt/XMClib/XMC_Peripheral_Library_v2.1.16/XMCLib/inc/xmc_ccu4.h ****  */
 566:/opt/XMClib/XMC_Peripheral_Library_v2.1.16/XMCLib/inc/xmc_ccu4.h **** typedef enum XMC_CCU4_SLICE_AUTOMAIC_SHADOW_TRANSFER_WRITE_INTO
 567:/opt/XMClib/XMC_Peripheral_Library_v2.1.16/XMCLib/inc/xmc_ccu4.h **** {
 568:/opt/XMClib/XMC_Peripheral_Library_v2.1.16/XMCLib/inc/xmc_ccu4.h ****   XMC_CCU4_SLICE_AUTOMAIC_SHADOW_TRANSFER_WRITE_INTO_PERIOD_SHADOW = CCU4_CC4_STC_ASPC_Msk,        
 569:/opt/XMClib/XMC_Peripheral_Library_v2.1.16/XMCLib/inc/xmc_ccu4.h **** 	                                                                                                  
 570:/opt/XMClib/XMC_Peripheral_Library_v2.1.16/XMCLib/inc/xmc_ccu4.h ****                                                                                                    
 571:/opt/XMClib/XMC_Peripheral_Library_v2.1.16/XMCLib/inc/xmc_ccu4.h ****                                                                                                    
 572:/opt/XMClib/XMC_Peripheral_Library_v2.1.16/XMCLib/inc/xmc_ccu4.h ****   XMC_CCU4_SLICE_AUTOMAIC_SHADOW_TRANSFER_WRITE_INTO_COMPARE_SHADOW = CCU4_CC4_STC_ASCC_Msk,       
 573:/opt/XMClib/XMC_Peripheral_Library_v2.1.16/XMCLib/inc/xmc_ccu4.h **** 	                                                                                                  
 574:/opt/XMClib/XMC_Peripheral_Library_v2.1.16/XMCLib/inc/xmc_ccu4.h **** 	                                                                                                  
 575:/opt/XMClib/XMC_Peripheral_Library_v2.1.16/XMCLib/inc/xmc_ccu4.h **** 	                                                                                                  
 576:/opt/XMClib/XMC_Peripheral_Library_v2.1.16/XMCLib/inc/xmc_ccu4.h ****   XMC_CCU4_SLICE_AUTOMAIC_SHADOW_TRANSFER_WRITE_INTO_PASSIVE_LEVEL = CCU4_CC4_STC_ASLC_Msk,        
 577:/opt/XMClib/XMC_Peripheral_Library_v2.1.16/XMCLib/inc/xmc_ccu4.h **** 	                                                                                                  
 578:/opt/XMClib/XMC_Peripheral_Library_v2.1.16/XMCLib/inc/xmc_ccu4.h ****                                                                                                    
 579:/opt/XMClib/XMC_Peripheral_Library_v2.1.16/XMCLib/inc/xmc_ccu4.h ****   XMC_CCU4_SLICE_AUTOMAIC_SHADOW_TRANSFER_WRITE_INTO_DITHER_SHADOW = CCU4_CC4_STC_ASDC_Msk,        
 580:/opt/XMClib/XMC_Peripheral_Library_v2.1.16/XMCLib/inc/xmc_ccu4.h ****                                                                                                    
 581:/opt/XMClib/XMC_Peripheral_Library_v2.1.16/XMCLib/inc/xmc_ccu4.h ****                                                                                                    
 582:/opt/XMClib/XMC_Peripheral_Library_v2.1.16/XMCLib/inc/xmc_ccu4.h ****   XMC_CCU4_SLICE_AUTOMAIC_SHADOW_TRANSFER_WRITE_INTO_FLOATING_PRESCALER_SHADOW = CCU4_CC4_STC_ASFC_
 583:/opt/XMClib/XMC_Peripheral_Library_v2.1.16/XMCLib/inc/xmc_ccu4.h **** 	                                                                                                  
 584:/opt/XMClib/XMC_Peripheral_Library_v2.1.16/XMCLib/inc/xmc_ccu4.h ****                                                                                                    
 585:/opt/XMClib/XMC_Peripheral_Library_v2.1.16/XMCLib/inc/xmc_ccu4.h ****                                                                                                    
 586:/opt/XMClib/XMC_Peripheral_Library_v2.1.16/XMCLib/inc/xmc_ccu4.h **** 
 587:/opt/XMClib/XMC_Peripheral_Library_v2.1.16/XMCLib/inc/xmc_ccu4.h **** } XMC_CCU4_SLICE_AUTOMAIC_SHADOW_TRANSFER_WRITE_INTO_t;
 588:/opt/XMClib/XMC_Peripheral_Library_v2.1.16/XMCLib/inc/xmc_ccu4.h **** #endif
 589:/opt/XMClib/XMC_Peripheral_Library_v2.1.16/XMCLib/inc/xmc_ccu4.h **** /**
 590:/opt/XMClib/XMC_Peripheral_Library_v2.1.16/XMCLib/inc/xmc_ccu4.h ****  *  Used to create Mask needed for Multi-channel Shadow transfer enable/disable
 591:/opt/XMClib/XMC_Peripheral_Library_v2.1.16/XMCLib/inc/xmc_ccu4.h ****  */
 592:/opt/XMClib/XMC_Peripheral_Library_v2.1.16/XMCLib/inc/xmc_ccu4.h **** typedef enum XMC_CCU4_SLICE_MASK
 593:/opt/XMClib/XMC_Peripheral_Library_v2.1.16/XMCLib/inc/xmc_ccu4.h **** {
 594:/opt/XMClib/XMC_Peripheral_Library_v2.1.16/XMCLib/inc/xmc_ccu4.h ****   XMC_CCU4_SLICE_MASK_SLICE_0  = 1U , /**< SLICE-0 */
 595:/opt/XMClib/XMC_Peripheral_Library_v2.1.16/XMCLib/inc/xmc_ccu4.h ****   XMC_CCU4_SLICE_MASK_SLICE_1  = 2U , /**< SLICE-1 */
 596:/opt/XMClib/XMC_Peripheral_Library_v2.1.16/XMCLib/inc/xmc_ccu4.h ****   XMC_CCU4_SLICE_MASK_SLICE_2  = 4U , /**< SLICE-2 */
 597:/opt/XMClib/XMC_Peripheral_Library_v2.1.16/XMCLib/inc/xmc_ccu4.h ****   XMC_CCU4_SLICE_MASK_SLICE_3  = 8U   /**< SLICE-3 */
 598:/opt/XMClib/XMC_Peripheral_Library_v2.1.16/XMCLib/inc/xmc_ccu4.h **** } XMC_CCU4_SLICE_MASK_t;
 599:/opt/XMClib/XMC_Peripheral_Library_v2.1.16/XMCLib/inc/xmc_ccu4.h **** 
 600:/opt/XMClib/XMC_Peripheral_Library_v2.1.16/XMCLib/inc/xmc_ccu4.h **** 
 601:/opt/XMClib/XMC_Peripheral_Library_v2.1.16/XMCLib/inc/xmc_ccu4.h **** /**************************************************************************************************
 602:/opt/XMClib/XMC_Peripheral_Library_v2.1.16/XMCLib/inc/xmc_ccu4.h ****  * DATA STRUCTURES
 603:/opt/XMClib/XMC_Peripheral_Library_v2.1.16/XMCLib/inc/xmc_ccu4.h ****  **************************************************************************************************
 604:/opt/XMClib/XMC_Peripheral_Library_v2.1.16/XMCLib/inc/xmc_ccu4.h **** 
 605:/opt/XMClib/XMC_Peripheral_Library_v2.1.16/XMCLib/inc/xmc_ccu4.h **** /**
 606:/opt/XMClib/XMC_Peripheral_Library_v2.1.16/XMCLib/inc/xmc_ccu4.h ****  *  Configuration data structure of an External Event(Event-0/1/2).
 607:/opt/XMClib/XMC_Peripheral_Library_v2.1.16/XMCLib/inc/xmc_ccu4.h ****  *  Needed to configure the various aspects of an External Event.
 608:/opt/XMClib/XMC_Peripheral_Library_v2.1.16/XMCLib/inc/xmc_ccu4.h ****  *  This structure will not connect the external event with an external function.
 609:/opt/XMClib/XMC_Peripheral_Library_v2.1.16/XMCLib/inc/xmc_ccu4.h ****  */ 
 610:/opt/XMClib/XMC_Peripheral_Library_v2.1.16/XMCLib/inc/xmc_ccu4.h **** typedef struct XMC_CCU4_SLICE_EVENT_CONFIG
 611:/opt/XMClib/XMC_Peripheral_Library_v2.1.16/XMCLib/inc/xmc_ccu4.h **** {
 612:/opt/XMClib/XMC_Peripheral_Library_v2.1.16/XMCLib/inc/xmc_ccu4.h ****   XMC_CCU4_SLICE_INPUT_t                   mapped_input; /**< Required input signal for the Event *
 613:/opt/XMClib/XMC_Peripheral_Library_v2.1.16/XMCLib/inc/xmc_ccu4.h ****   XMC_CCU4_SLICE_EVENT_EDGE_SENSITIVITY_t  edge;         /**< Select the event edge of the input si
 614:/opt/XMClib/XMC_Peripheral_Library_v2.1.16/XMCLib/inc/xmc_ccu4.h ****                                                               This is needed for an edge sensitive 
 615:/opt/XMClib/XMC_Peripheral_Library_v2.1.16/XMCLib/inc/xmc_ccu4.h ****   XMC_CCU4_SLICE_EVENT_LEVEL_SENSITIVITY_t level;        /**< Select the event level of the input s
 616:/opt/XMClib/XMC_Peripheral_Library_v2.1.16/XMCLib/inc/xmc_ccu4.h ****                                                               This is needed for an level sensitive
 617:/opt/XMClib/XMC_Peripheral_Library_v2.1.16/XMCLib/inc/xmc_ccu4.h ****   XMC_CCU4_SLICE_EVENT_FILTER_t            duration;     /**< Low Pass filter duration in terms of 
 618:/opt/XMClib/XMC_Peripheral_Library_v2.1.16/XMCLib/inc/xmc_ccu4.h **** } XMC_CCU4_SLICE_EVENT_CONFIG_t;
 619:/opt/XMClib/XMC_Peripheral_Library_v2.1.16/XMCLib/inc/xmc_ccu4.h **** 
 620:/opt/XMClib/XMC_Peripheral_Library_v2.1.16/XMCLib/inc/xmc_ccu4.h **** /*Anonymous structure/union guard start*/
 621:/opt/XMClib/XMC_Peripheral_Library_v2.1.16/XMCLib/inc/xmc_ccu4.h **** #if defined(__CC_ARM)
 622:/opt/XMClib/XMC_Peripheral_Library_v2.1.16/XMCLib/inc/xmc_ccu4.h ****   #pragma push
 623:/opt/XMClib/XMC_Peripheral_Library_v2.1.16/XMCLib/inc/xmc_ccu4.h ****   #pragma anon_unions
 624:/opt/XMClib/XMC_Peripheral_Library_v2.1.16/XMCLib/inc/xmc_ccu4.h **** #elif defined(__TASKING__)
 625:/opt/XMClib/XMC_Peripheral_Library_v2.1.16/XMCLib/inc/xmc_ccu4.h ****   #pragma warning 586
 626:/opt/XMClib/XMC_Peripheral_Library_v2.1.16/XMCLib/inc/xmc_ccu4.h **** #endif
 627:/opt/XMClib/XMC_Peripheral_Library_v2.1.16/XMCLib/inc/xmc_ccu4.h **** 
 628:/opt/XMClib/XMC_Peripheral_Library_v2.1.16/XMCLib/inc/xmc_ccu4.h **** /**
 629:/opt/XMClib/XMC_Peripheral_Library_v2.1.16/XMCLib/inc/xmc_ccu4.h ****  *  Configuration data structure for CCU4 slice. Specifically configures the CCU4 slice to compare 
 630:/opt/XMClib/XMC_Peripheral_Library_v2.1.16/XMCLib/inc/xmc_ccu4.h ****  *  This excludes event and function configuration.
 631:/opt/XMClib/XMC_Peripheral_Library_v2.1.16/XMCLib/inc/xmc_ccu4.h ****  */ 
 632:/opt/XMClib/XMC_Peripheral_Library_v2.1.16/XMCLib/inc/xmc_ccu4.h **** typedef struct XMC_CCU4_SLICE_COMPARE_CONFIG
 633:/opt/XMClib/XMC_Peripheral_Library_v2.1.16/XMCLib/inc/xmc_ccu4.h **** {
 634:/opt/XMClib/XMC_Peripheral_Library_v2.1.16/XMCLib/inc/xmc_ccu4.h ****   union
 635:/opt/XMClib/XMC_Peripheral_Library_v2.1.16/XMCLib/inc/xmc_ccu4.h ****   {
 636:/opt/XMClib/XMC_Peripheral_Library_v2.1.16/XMCLib/inc/xmc_ccu4.h ****     struct
 637:/opt/XMClib/XMC_Peripheral_Library_v2.1.16/XMCLib/inc/xmc_ccu4.h ****     {
 638:/opt/XMClib/XMC_Peripheral_Library_v2.1.16/XMCLib/inc/xmc_ccu4.h ****       uint32_t timer_mode : 1;         /**< Edge aligned or Centre Aligned.
 639:/opt/XMClib/XMC_Peripheral_Library_v2.1.16/XMCLib/inc/xmc_ccu4.h ****                                              Accepts enum ::XMC_CCU4_SLICE_TIMER_COUNT_MODE_t */
 640:/opt/XMClib/XMC_Peripheral_Library_v2.1.16/XMCLib/inc/xmc_ccu4.h ****       uint32_t monoshot : 1;           /**< Single shot or Continuous mode .
 641:/opt/XMClib/XMC_Peripheral_Library_v2.1.16/XMCLib/inc/xmc_ccu4.h ****                                              Accepts enum :: XMC_CCU4_SLICE_TIMER_REPEAT_MODE_t*/
 642:/opt/XMClib/XMC_Peripheral_Library_v2.1.16/XMCLib/inc/xmc_ccu4.h ****       uint32_t shadow_xfer_clear : 1;  /**< Should PR and CR shadow xfer happen when timer is clear
 643:/opt/XMClib/XMC_Peripheral_Library_v2.1.16/XMCLib/inc/xmc_ccu4.h ****       uint32_t : 10;
 644:/opt/XMClib/XMC_Peripheral_Library_v2.1.16/XMCLib/inc/xmc_ccu4.h ****       uint32_t dither_timer_period: 1; /**< Can the period of the timer dither? */
 645:/opt/XMClib/XMC_Peripheral_Library_v2.1.16/XMCLib/inc/xmc_ccu4.h ****       uint32_t dither_duty_cycle : 1;  /**< Can the compare match of the timer dither? */
 646:/opt/XMClib/XMC_Peripheral_Library_v2.1.16/XMCLib/inc/xmc_ccu4.h ****       uint32_t : 1;
 647:/opt/XMClib/XMC_Peripheral_Library_v2.1.16/XMCLib/inc/xmc_ccu4.h ****       uint32_t prescaler_mode: 1;      /**< Normal or floating prescaler mode.
 648:/opt/XMClib/XMC_Peripheral_Library_v2.1.16/XMCLib/inc/xmc_ccu4.h ****                                              Accepts enum :: XMC_CCU4_SLICE_PRESCALER_MODE_t*/
 649:/opt/XMClib/XMC_Peripheral_Library_v2.1.16/XMCLib/inc/xmc_ccu4.h ****       uint32_t : 8;
 650:/opt/XMClib/XMC_Peripheral_Library_v2.1.16/XMCLib/inc/xmc_ccu4.h ****       uint32_t mcm_enable : 1;         /**< Multi-Channel mode enable? */
 651:/opt/XMClib/XMC_Peripheral_Library_v2.1.16/XMCLib/inc/xmc_ccu4.h ****       uint32_t : 6;
 652:/opt/XMClib/XMC_Peripheral_Library_v2.1.16/XMCLib/inc/xmc_ccu4.h ****     };
 653:/opt/XMClib/XMC_Peripheral_Library_v2.1.16/XMCLib/inc/xmc_ccu4.h ****     uint32_t tc;
 654:/opt/XMClib/XMC_Peripheral_Library_v2.1.16/XMCLib/inc/xmc_ccu4.h ****   };
 655:/opt/XMClib/XMC_Peripheral_Library_v2.1.16/XMCLib/inc/xmc_ccu4.h ****   uint32_t prescaler_initval : 4;      /**< Initial prescaler divider value 
 656:/opt/XMClib/XMC_Peripheral_Library_v2.1.16/XMCLib/inc/xmc_ccu4.h ****                                             Accepts enum :: XMC_CCU4_SLICE_PRESCALER_t */
 657:/opt/XMClib/XMC_Peripheral_Library_v2.1.16/XMCLib/inc/xmc_ccu4.h ****   uint32_t float_limit : 4;            /**< The max value which the prescaler divider can increment
 658:/opt/XMClib/XMC_Peripheral_Library_v2.1.16/XMCLib/inc/xmc_ccu4.h ****   uint32_t dither_limit : 4;           /**< The value that determines the spreading of dithering */
 659:/opt/XMClib/XMC_Peripheral_Library_v2.1.16/XMCLib/inc/xmc_ccu4.h ****   uint32_t passive_level : 1;          /**< Configuration of ST and OUT passive levels.
 660:/opt/XMClib/XMC_Peripheral_Library_v2.1.16/XMCLib/inc/xmc_ccu4.h ****                                              Accepts enum :: XMC_CCU4_SLICE_OUTPUT_PASSIVE_LEVEL_t*
 661:/opt/XMClib/XMC_Peripheral_Library_v2.1.16/XMCLib/inc/xmc_ccu4.h ****   uint32_t timer_concatenation : 1;    /**< Enables the concatenation of the timer if true.*/
 662:/opt/XMClib/XMC_Peripheral_Library_v2.1.16/XMCLib/inc/xmc_ccu4.h **** } XMC_CCU4_SLICE_COMPARE_CONFIG_t;
 663:/opt/XMClib/XMC_Peripheral_Library_v2.1.16/XMCLib/inc/xmc_ccu4.h **** 
 664:/opt/XMClib/XMC_Peripheral_Library_v2.1.16/XMCLib/inc/xmc_ccu4.h **** /**
 665:/opt/XMClib/XMC_Peripheral_Library_v2.1.16/XMCLib/inc/xmc_ccu4.h ****  *  Configuration data structure for CCU4 slice. Specifically configures the CCU4 slice to capture 
 666:/opt/XMClib/XMC_Peripheral_Library_v2.1.16/XMCLib/inc/xmc_ccu4.h ****  *  This excludes event and function configuration.
 667:/opt/XMClib/XMC_Peripheral_Library_v2.1.16/XMCLib/inc/xmc_ccu4.h ****  */ 
 668:/opt/XMClib/XMC_Peripheral_Library_v2.1.16/XMCLib/inc/xmc_ccu4.h **** typedef struct XMC_CCU4_SLICE_CAPTURE_CONFIG
 669:/opt/XMClib/XMC_Peripheral_Library_v2.1.16/XMCLib/inc/xmc_ccu4.h **** {
 670:/opt/XMClib/XMC_Peripheral_Library_v2.1.16/XMCLib/inc/xmc_ccu4.h ****   union
 671:/opt/XMClib/XMC_Peripheral_Library_v2.1.16/XMCLib/inc/xmc_ccu4.h ****   {
 672:/opt/XMClib/XMC_Peripheral_Library_v2.1.16/XMCLib/inc/xmc_ccu4.h ****     struct
 673:/opt/XMClib/XMC_Peripheral_Library_v2.1.16/XMCLib/inc/xmc_ccu4.h ****     {
 674:/opt/XMClib/XMC_Peripheral_Library_v2.1.16/XMCLib/inc/xmc_ccu4.h ****       uint32_t : 4;
 675:/opt/XMClib/XMC_Peripheral_Library_v2.1.16/XMCLib/inc/xmc_ccu4.h ****       uint32_t fifo_enable : 1;      /**< Should the capture registers be setup as a FIFO?(Extended
 676:/opt/XMClib/XMC_Peripheral_Library_v2.1.16/XMCLib/inc/xmc_ccu4.h ****       uint32_t timer_clear_mode : 2; /**< How should the timer register be cleared upon detection o
 677:/opt/XMClib/XMC_Peripheral_Library_v2.1.16/XMCLib/inc/xmc_ccu4.h ****                                           Accepts enum ::XMC_CCU4_SLICE_TIMER_CLEAR_MODE_t*/
 678:/opt/XMClib/XMC_Peripheral_Library_v2.1.16/XMCLib/inc/xmc_ccu4.h ****       uint32_t : 4;
 679:/opt/XMClib/XMC_Peripheral_Library_v2.1.16/XMCLib/inc/xmc_ccu4.h ****       uint32_t same_event : 1;       /**< Should the capture event for C1V/C0V and C3V/C2V be same 
 680:/opt/XMClib/XMC_Peripheral_Library_v2.1.16/XMCLib/inc/xmc_ccu4.h ****       uint32_t ignore_full_flag : 1; /**< Should updates to capture registers follow full flag rule
 681:/opt/XMClib/XMC_Peripheral_Library_v2.1.16/XMCLib/inc/xmc_ccu4.h ****       uint32_t : 3;
 682:/opt/XMClib/XMC_Peripheral_Library_v2.1.16/XMCLib/inc/xmc_ccu4.h ****       uint32_t prescaler_mode: 1;    /**< Normal or floating prescaler Accepts enum :: XMC_CCU4_SLI
 683:/opt/XMClib/XMC_Peripheral_Library_v2.1.16/XMCLib/inc/xmc_ccu4.h ****       uint32_t : 15;
 684:/opt/XMClib/XMC_Peripheral_Library_v2.1.16/XMCLib/inc/xmc_ccu4.h ****     };
 685:/opt/XMClib/XMC_Peripheral_Library_v2.1.16/XMCLib/inc/xmc_ccu4.h ****     uint32_t tc;
 686:/opt/XMClib/XMC_Peripheral_Library_v2.1.16/XMCLib/inc/xmc_ccu4.h ****   };
 687:/opt/XMClib/XMC_Peripheral_Library_v2.1.16/XMCLib/inc/xmc_ccu4.h ****   uint32_t prescaler_initval : 4;    /**< Prescaler divider value */
 688:/opt/XMClib/XMC_Peripheral_Library_v2.1.16/XMCLib/inc/xmc_ccu4.h ****   uint32_t float_limit : 4;          /**< The max value which the prescaler divider can increment t
 689:/opt/XMClib/XMC_Peripheral_Library_v2.1.16/XMCLib/inc/xmc_ccu4.h ****   uint32_t timer_concatenation : 1;  /**< Enables the concatenation of the timer */
 690:/opt/XMClib/XMC_Peripheral_Library_v2.1.16/XMCLib/inc/xmc_ccu4.h **** } XMC_CCU4_SLICE_CAPTURE_CONFIG_t;
 691:/opt/XMClib/XMC_Peripheral_Library_v2.1.16/XMCLib/inc/xmc_ccu4.h **** /*Anonymous structure/union guard end*/
 692:/opt/XMClib/XMC_Peripheral_Library_v2.1.16/XMCLib/inc/xmc_ccu4.h **** #if defined(__CC_ARM)
 693:/opt/XMClib/XMC_Peripheral_Library_v2.1.16/XMCLib/inc/xmc_ccu4.h ****   #pragma pop
 694:/opt/XMClib/XMC_Peripheral_Library_v2.1.16/XMCLib/inc/xmc_ccu4.h **** #elif defined(__TASKING__)
 695:/opt/XMClib/XMC_Peripheral_Library_v2.1.16/XMCLib/inc/xmc_ccu4.h ****   #pragma warning restore
 696:/opt/XMClib/XMC_Peripheral_Library_v2.1.16/XMCLib/inc/xmc_ccu4.h **** #endif
 697:/opt/XMClib/XMC_Peripheral_Library_v2.1.16/XMCLib/inc/xmc_ccu4.h **** /**************************************************************************************************
 698:/opt/XMClib/XMC_Peripheral_Library_v2.1.16/XMCLib/inc/xmc_ccu4.h ****  * API Prototypes
 699:/opt/XMClib/XMC_Peripheral_Library_v2.1.16/XMCLib/inc/xmc_ccu4.h ****  **************************************************************************************************
 700:/opt/XMClib/XMC_Peripheral_Library_v2.1.16/XMCLib/inc/xmc_ccu4.h **** 
 701:/opt/XMClib/XMC_Peripheral_Library_v2.1.16/XMCLib/inc/xmc_ccu4.h **** #ifdef __cplusplus
 702:/opt/XMClib/XMC_Peripheral_Library_v2.1.16/XMCLib/inc/xmc_ccu4.h **** extern "C" {
 703:/opt/XMClib/XMC_Peripheral_Library_v2.1.16/XMCLib/inc/xmc_ccu4.h **** #endif
 704:/opt/XMClib/XMC_Peripheral_Library_v2.1.16/XMCLib/inc/xmc_ccu4.h **** 
 705:/opt/XMClib/XMC_Peripheral_Library_v2.1.16/XMCLib/inc/xmc_ccu4.h **** __STATIC_INLINE bool XMC_CCU4_IsValidModule(const XMC_CCU4_MODULE_t *const module)
 706:/opt/XMClib/XMC_Peripheral_Library_v2.1.16/XMCLib/inc/xmc_ccu4.h **** {
 707:/opt/XMClib/XMC_Peripheral_Library_v2.1.16/XMCLib/inc/xmc_ccu4.h ****   bool tmp = false;
 708:/opt/XMClib/XMC_Peripheral_Library_v2.1.16/XMCLib/inc/xmc_ccu4.h ****   
 709:/opt/XMClib/XMC_Peripheral_Library_v2.1.16/XMCLib/inc/xmc_ccu4.h ****   tmp = (module == CCU40);
 710:/opt/XMClib/XMC_Peripheral_Library_v2.1.16/XMCLib/inc/xmc_ccu4.h ****   
 711:/opt/XMClib/XMC_Peripheral_Library_v2.1.16/XMCLib/inc/xmc_ccu4.h **** #if defined(CCU41) 
 712:/opt/XMClib/XMC_Peripheral_Library_v2.1.16/XMCLib/inc/xmc_ccu4.h ****   tmp = tmp || (module == CCU41);
 713:/opt/XMClib/XMC_Peripheral_Library_v2.1.16/XMCLib/inc/xmc_ccu4.h **** #endif
 714:/opt/XMClib/XMC_Peripheral_Library_v2.1.16/XMCLib/inc/xmc_ccu4.h **** 
 715:/opt/XMClib/XMC_Peripheral_Library_v2.1.16/XMCLib/inc/xmc_ccu4.h **** #if defined(CCU42)
 716:/opt/XMClib/XMC_Peripheral_Library_v2.1.16/XMCLib/inc/xmc_ccu4.h ****   tmp = tmp || (module == CCU42);
 717:/opt/XMClib/XMC_Peripheral_Library_v2.1.16/XMCLib/inc/xmc_ccu4.h **** #endif
 718:/opt/XMClib/XMC_Peripheral_Library_v2.1.16/XMCLib/inc/xmc_ccu4.h **** 
 719:/opt/XMClib/XMC_Peripheral_Library_v2.1.16/XMCLib/inc/xmc_ccu4.h **** #if defined(CCU43)
 720:/opt/XMClib/XMC_Peripheral_Library_v2.1.16/XMCLib/inc/xmc_ccu4.h ****   tmp = tmp || (module == CCU43);
 721:/opt/XMClib/XMC_Peripheral_Library_v2.1.16/XMCLib/inc/xmc_ccu4.h **** #endif
 722:/opt/XMClib/XMC_Peripheral_Library_v2.1.16/XMCLib/inc/xmc_ccu4.h ****   
 723:/opt/XMClib/XMC_Peripheral_Library_v2.1.16/XMCLib/inc/xmc_ccu4.h ****   return tmp;  
 724:/opt/XMClib/XMC_Peripheral_Library_v2.1.16/XMCLib/inc/xmc_ccu4.h **** } 
 725:/opt/XMClib/XMC_Peripheral_Library_v2.1.16/XMCLib/inc/xmc_ccu4.h **** 
 726:/opt/XMClib/XMC_Peripheral_Library_v2.1.16/XMCLib/inc/xmc_ccu4.h **** __STATIC_INLINE bool XMC_CCU4_IsValidSlice(const XMC_CCU4_SLICE_t *const slice)
 727:/opt/XMClib/XMC_Peripheral_Library_v2.1.16/XMCLib/inc/xmc_ccu4.h **** {
 728:/opt/XMClib/XMC_Peripheral_Library_v2.1.16/XMCLib/inc/xmc_ccu4.h ****   bool tmp = false;
 729:/opt/XMClib/XMC_Peripheral_Library_v2.1.16/XMCLib/inc/xmc_ccu4.h ****   
 730:/opt/XMClib/XMC_Peripheral_Library_v2.1.16/XMCLib/inc/xmc_ccu4.h ****   tmp = (slice == CCU40_CC40);
 731:/opt/XMClib/XMC_Peripheral_Library_v2.1.16/XMCLib/inc/xmc_ccu4.h **** #if defined(CCU40_CC41)  
 732:/opt/XMClib/XMC_Peripheral_Library_v2.1.16/XMCLib/inc/xmc_ccu4.h ****   tmp = tmp || (slice == CCU40_CC41);
 733:/opt/XMClib/XMC_Peripheral_Library_v2.1.16/XMCLib/inc/xmc_ccu4.h **** #endif
 734:/opt/XMClib/XMC_Peripheral_Library_v2.1.16/XMCLib/inc/xmc_ccu4.h **** #if defined(CCU40_CC42)  
 735:/opt/XMClib/XMC_Peripheral_Library_v2.1.16/XMCLib/inc/xmc_ccu4.h ****   tmp = tmp || (slice == CCU40_CC42);
 736:/opt/XMClib/XMC_Peripheral_Library_v2.1.16/XMCLib/inc/xmc_ccu4.h **** #endif
 737:/opt/XMClib/XMC_Peripheral_Library_v2.1.16/XMCLib/inc/xmc_ccu4.h **** #if defined(CCU40_CC43)  
 738:/opt/XMClib/XMC_Peripheral_Library_v2.1.16/XMCLib/inc/xmc_ccu4.h ****   tmp = tmp || (slice == CCU40_CC43);
 739:/opt/XMClib/XMC_Peripheral_Library_v2.1.16/XMCLib/inc/xmc_ccu4.h **** #endif
 740:/opt/XMClib/XMC_Peripheral_Library_v2.1.16/XMCLib/inc/xmc_ccu4.h **** #if defined(CCU41)  
 741:/opt/XMClib/XMC_Peripheral_Library_v2.1.16/XMCLib/inc/xmc_ccu4.h ****   tmp = tmp || (slice == CCU41_CC40);
 742:/opt/XMClib/XMC_Peripheral_Library_v2.1.16/XMCLib/inc/xmc_ccu4.h **** #if defined(CCU41_CC41)  
 743:/opt/XMClib/XMC_Peripheral_Library_v2.1.16/XMCLib/inc/xmc_ccu4.h ****   tmp = tmp || (slice == CCU41_CC41);
 744:/opt/XMClib/XMC_Peripheral_Library_v2.1.16/XMCLib/inc/xmc_ccu4.h **** #endif
 745:/opt/XMClib/XMC_Peripheral_Library_v2.1.16/XMCLib/inc/xmc_ccu4.h **** #if defined(CCU41_CC42)  
 746:/opt/XMClib/XMC_Peripheral_Library_v2.1.16/XMCLib/inc/xmc_ccu4.h ****   tmp = tmp || (slice == CCU41_CC42);
 747:/opt/XMClib/XMC_Peripheral_Library_v2.1.16/XMCLib/inc/xmc_ccu4.h **** #endif
 748:/opt/XMClib/XMC_Peripheral_Library_v2.1.16/XMCLib/inc/xmc_ccu4.h **** #if defined(CCU41_CC43)  
 749:/opt/XMClib/XMC_Peripheral_Library_v2.1.16/XMCLib/inc/xmc_ccu4.h ****   tmp = tmp || (slice == CCU41_CC43);
 750:/opt/XMClib/XMC_Peripheral_Library_v2.1.16/XMCLib/inc/xmc_ccu4.h **** #endif
 751:/opt/XMClib/XMC_Peripheral_Library_v2.1.16/XMCLib/inc/xmc_ccu4.h **** #endif 
 752:/opt/XMClib/XMC_Peripheral_Library_v2.1.16/XMCLib/inc/xmc_ccu4.h **** #if defined(CCU42)  
 753:/opt/XMClib/XMC_Peripheral_Library_v2.1.16/XMCLib/inc/xmc_ccu4.h ****   tmp = tmp || (slice == CCU42_CC40);
 754:/opt/XMClib/XMC_Peripheral_Library_v2.1.16/XMCLib/inc/xmc_ccu4.h **** #if defined(CCU42_CC41)  
 755:/opt/XMClib/XMC_Peripheral_Library_v2.1.16/XMCLib/inc/xmc_ccu4.h ****   tmp = tmp || (slice == CCU42_CC41);
 756:/opt/XMClib/XMC_Peripheral_Library_v2.1.16/XMCLib/inc/xmc_ccu4.h **** #endif
 757:/opt/XMClib/XMC_Peripheral_Library_v2.1.16/XMCLib/inc/xmc_ccu4.h **** #if defined(CCU42_CC42)  
 758:/opt/XMClib/XMC_Peripheral_Library_v2.1.16/XMCLib/inc/xmc_ccu4.h ****   tmp = tmp || (slice == CCU42_CC42);
 759:/opt/XMClib/XMC_Peripheral_Library_v2.1.16/XMCLib/inc/xmc_ccu4.h **** #endif
 760:/opt/XMClib/XMC_Peripheral_Library_v2.1.16/XMCLib/inc/xmc_ccu4.h **** #if defined(CCU42_CC43)  
 761:/opt/XMClib/XMC_Peripheral_Library_v2.1.16/XMCLib/inc/xmc_ccu4.h ****   tmp = tmp || (slice == CCU42_CC43);
 762:/opt/XMClib/XMC_Peripheral_Library_v2.1.16/XMCLib/inc/xmc_ccu4.h **** #endif
 763:/opt/XMClib/XMC_Peripheral_Library_v2.1.16/XMCLib/inc/xmc_ccu4.h **** #endif
 764:/opt/XMClib/XMC_Peripheral_Library_v2.1.16/XMCLib/inc/xmc_ccu4.h **** #if defined(CCU43)  
 765:/opt/XMClib/XMC_Peripheral_Library_v2.1.16/XMCLib/inc/xmc_ccu4.h ****   tmp = tmp || (slice == CCU43_CC40);
 766:/opt/XMClib/XMC_Peripheral_Library_v2.1.16/XMCLib/inc/xmc_ccu4.h **** #if defined(CCU43_CC41)  
 767:/opt/XMClib/XMC_Peripheral_Library_v2.1.16/XMCLib/inc/xmc_ccu4.h ****   tmp = tmp || (slice == CCU43_CC41);
 768:/opt/XMClib/XMC_Peripheral_Library_v2.1.16/XMCLib/inc/xmc_ccu4.h **** #endif
 769:/opt/XMClib/XMC_Peripheral_Library_v2.1.16/XMCLib/inc/xmc_ccu4.h **** #if defined(CCU43_CC42)  
 770:/opt/XMClib/XMC_Peripheral_Library_v2.1.16/XMCLib/inc/xmc_ccu4.h ****   tmp = tmp || (slice == CCU43_CC42);
 771:/opt/XMClib/XMC_Peripheral_Library_v2.1.16/XMCLib/inc/xmc_ccu4.h **** #endif
 772:/opt/XMClib/XMC_Peripheral_Library_v2.1.16/XMCLib/inc/xmc_ccu4.h **** #if defined(CCU43_CC43)  
 773:/opt/XMClib/XMC_Peripheral_Library_v2.1.16/XMCLib/inc/xmc_ccu4.h ****   tmp = tmp || (slice == CCU43_CC43);
 774:/opt/XMClib/XMC_Peripheral_Library_v2.1.16/XMCLib/inc/xmc_ccu4.h **** #endif
 775:/opt/XMClib/XMC_Peripheral_Library_v2.1.16/XMCLib/inc/xmc_ccu4.h **** #endif 
 776:/opt/XMClib/XMC_Peripheral_Library_v2.1.16/XMCLib/inc/xmc_ccu4.h ****   
 777:/opt/XMClib/XMC_Peripheral_Library_v2.1.16/XMCLib/inc/xmc_ccu4.h ****   return tmp;  
 778:/opt/XMClib/XMC_Peripheral_Library_v2.1.16/XMCLib/inc/xmc_ccu4.h **** } 
 779:/opt/XMClib/XMC_Peripheral_Library_v2.1.16/XMCLib/inc/xmc_ccu4.h **** 
 780:/opt/XMClib/XMC_Peripheral_Library_v2.1.16/XMCLib/inc/xmc_ccu4.h **** /**
 781:/opt/XMClib/XMC_Peripheral_Library_v2.1.16/XMCLib/inc/xmc_ccu4.h ****  * @param module Constant pointer to CCU4 module
 782:/opt/XMClib/XMC_Peripheral_Library_v2.1.16/XMCLib/inc/xmc_ccu4.h ****  * @param mcs_action multi-channel shadow transfer request configuration
 783:/opt/XMClib/XMC_Peripheral_Library_v2.1.16/XMCLib/inc/xmc_ccu4.h ****  * @return <BR>
 784:/opt/XMClib/XMC_Peripheral_Library_v2.1.16/XMCLib/inc/xmc_ccu4.h ****  *    None<BR>
 785:/opt/XMClib/XMC_Peripheral_Library_v2.1.16/XMCLib/inc/xmc_ccu4.h ****  *
 786:/opt/XMClib/XMC_Peripheral_Library_v2.1.16/XMCLib/inc/xmc_ccu4.h ****  * \par<b>Description:</b><br>
 787:/opt/XMClib/XMC_Peripheral_Library_v2.1.16/XMCLib/inc/xmc_ccu4.h ****  *  Initialization of global register GCTRL.<br>\n
 788:/opt/XMClib/XMC_Peripheral_Library_v2.1.16/XMCLib/inc/xmc_ccu4.h ****  *  As part of module initialization, behaviour of the module upon detection
 789:/opt/XMClib/XMC_Peripheral_Library_v2.1.16/XMCLib/inc/xmc_ccu4.h ****  *  Multi-Channel Mode trigger is configured. Will also invoke the XMC_CCU4_EnableModule().
 790:/opt/XMClib/XMC_Peripheral_Library_v2.1.16/XMCLib/inc/xmc_ccu4.h ****  *  The API call would bring up the required CCU4 module and also initialize the module for
 791:/opt/XMClib/XMC_Peripheral_Library_v2.1.16/XMCLib/inc/xmc_ccu4.h ****  *  the required multi-channel shadow transfer.
 792:/opt/XMClib/XMC_Peripheral_Library_v2.1.16/XMCLib/inc/xmc_ccu4.h ****  *
 793:/opt/XMClib/XMC_Peripheral_Library_v2.1.16/XMCLib/inc/xmc_ccu4.h ****  * \par<b>Related APIs:</b><br>
 794:/opt/XMClib/XMC_Peripheral_Library_v2.1.16/XMCLib/inc/xmc_ccu4.h ****  * XMC_CCU4_SLICE_CompareInit()<BR> XMC_CCU4_SLICE_CaptureInit().
 795:/opt/XMClib/XMC_Peripheral_Library_v2.1.16/XMCLib/inc/xmc_ccu4.h ****  */
 796:/opt/XMClib/XMC_Peripheral_Library_v2.1.16/XMCLib/inc/xmc_ccu4.h **** void XMC_CCU4_Init(XMC_CCU4_MODULE_t *const module, const XMC_CCU4_SLICE_MCMS_ACTION_t mcs_action);
 797:/opt/XMClib/XMC_Peripheral_Library_v2.1.16/XMCLib/inc/xmc_ccu4.h **** 
 798:/opt/XMClib/XMC_Peripheral_Library_v2.1.16/XMCLib/inc/xmc_ccu4.h **** /**
 799:/opt/XMClib/XMC_Peripheral_Library_v2.1.16/XMCLib/inc/xmc_ccu4.h ****  * @param module Constant pointer to CCU4 module
 800:/opt/XMClib/XMC_Peripheral_Library_v2.1.16/XMCLib/inc/xmc_ccu4.h ****  * @param clock Choice of input clock to the module
 801:/opt/XMClib/XMC_Peripheral_Library_v2.1.16/XMCLib/inc/xmc_ccu4.h ****  * @return <BR>
 802:/opt/XMClib/XMC_Peripheral_Library_v2.1.16/XMCLib/inc/xmc_ccu4.h ****  *    None<BR>
 803:/opt/XMClib/XMC_Peripheral_Library_v2.1.16/XMCLib/inc/xmc_ccu4.h ****  *
 804:/opt/XMClib/XMC_Peripheral_Library_v2.1.16/XMCLib/inc/xmc_ccu4.h ****  * \par<b>Description:</b><br>
 805:/opt/XMClib/XMC_Peripheral_Library_v2.1.16/XMCLib/inc/xmc_ccu4.h ****  *  Selects the Module Clock by configuring GCTRL.PCIS bits.<BR>\n
 806:/opt/XMClib/XMC_Peripheral_Library_v2.1.16/XMCLib/inc/xmc_ccu4.h ****  *  There are 3 potential clock sources. This API helps to select the required clock source.
 807:/opt/XMClib/XMC_Peripheral_Library_v2.1.16/XMCLib/inc/xmc_ccu4.h ****  *  Call to this API is valid after the XMC_CCU4_Init().
 808:/opt/XMClib/XMC_Peripheral_Library_v2.1.16/XMCLib/inc/xmc_ccu4.h ****  *
 809:/opt/XMClib/XMC_Peripheral_Library_v2.1.16/XMCLib/inc/xmc_ccu4.h ****  * \par<b>Related APIs:</b><br>
 810:/opt/XMClib/XMC_Peripheral_Library_v2.1.16/XMCLib/inc/xmc_ccu4.h ****  * None.<BR>
 811:/opt/XMClib/XMC_Peripheral_Library_v2.1.16/XMCLib/inc/xmc_ccu4.h ****  */
 812:/opt/XMClib/XMC_Peripheral_Library_v2.1.16/XMCLib/inc/xmc_ccu4.h **** void XMC_CCU4_SetModuleClock(XMC_CCU4_MODULE_t *const module, const XMC_CCU4_CLOCK_t clock);
 813:/opt/XMClib/XMC_Peripheral_Library_v2.1.16/XMCLib/inc/xmc_ccu4.h **** 
 814:/opt/XMClib/XMC_Peripheral_Library_v2.1.16/XMCLib/inc/xmc_ccu4.h **** /**
 815:/opt/XMClib/XMC_Peripheral_Library_v2.1.16/XMCLib/inc/xmc_ccu4.h ****  * @param module Constant pointer to CCU4 module
 816:/opt/XMClib/XMC_Peripheral_Library_v2.1.16/XMCLib/inc/xmc_ccu4.h ****  * @return <BR>
 817:/opt/XMClib/XMC_Peripheral_Library_v2.1.16/XMCLib/inc/xmc_ccu4.h ****  *    None<BR>
 818:/opt/XMClib/XMC_Peripheral_Library_v2.1.16/XMCLib/inc/xmc_ccu4.h ****  *
 819:/opt/XMClib/XMC_Peripheral_Library_v2.1.16/XMCLib/inc/xmc_ccu4.h ****  * \par<b>Description:</b><br>
 820:/opt/XMClib/XMC_Peripheral_Library_v2.1.16/XMCLib/inc/xmc_ccu4.h ****  * Enables the CCU4 module and brings it to active state.<BR>\n
 821:/opt/XMClib/XMC_Peripheral_Library_v2.1.16/XMCLib/inc/xmc_ccu4.h ****  * Also disables the gating of the clock signal (if applicable depending on the device being select
 822:/opt/XMClib/XMC_Peripheral_Library_v2.1.16/XMCLib/inc/xmc_ccu4.h ****  * Invoke this API before any operations are done on the CCU4 module. Invoked from  XMC_CCU4_Init()
 823:/opt/XMClib/XMC_Peripheral_Library_v2.1.16/XMCLib/inc/xmc_ccu4.h ****  *
 824:/opt/XMClib/XMC_Peripheral_Library_v2.1.16/XMCLib/inc/xmc_ccu4.h ****  * \par<b>Related APIs:</b><br>
 825:/opt/XMClib/XMC_Peripheral_Library_v2.1.16/XMCLib/inc/xmc_ccu4.h ****  * XMC_CCU4_SetModuleClock()<BR> XMC_CCU4_DisableModule()<BR> XMC_CCU4_StartPrescaler().
 826:/opt/XMClib/XMC_Peripheral_Library_v2.1.16/XMCLib/inc/xmc_ccu4.h ****  */
 827:/opt/XMClib/XMC_Peripheral_Library_v2.1.16/XMCLib/inc/xmc_ccu4.h **** void XMC_CCU4_EnableModule(XMC_CCU4_MODULE_t *const module);
 828:/opt/XMClib/XMC_Peripheral_Library_v2.1.16/XMCLib/inc/xmc_ccu4.h **** 
 829:/opt/XMClib/XMC_Peripheral_Library_v2.1.16/XMCLib/inc/xmc_ccu4.h **** /**
 830:/opt/XMClib/XMC_Peripheral_Library_v2.1.16/XMCLib/inc/xmc_ccu4.h ****  * @param module Constant pointer to CCU4 module
 831:/opt/XMClib/XMC_Peripheral_Library_v2.1.16/XMCLib/inc/xmc_ccu4.h ****  * @return <BR>
 832:/opt/XMClib/XMC_Peripheral_Library_v2.1.16/XMCLib/inc/xmc_ccu4.h ****  *    None<BR>
 833:/opt/XMClib/XMC_Peripheral_Library_v2.1.16/XMCLib/inc/xmc_ccu4.h ****  *
 834:/opt/XMClib/XMC_Peripheral_Library_v2.1.16/XMCLib/inc/xmc_ccu4.h ****  * \par<b>Description:</b><br>
 835:/opt/XMClib/XMC_Peripheral_Library_v2.1.16/XMCLib/inc/xmc_ccu4.h ****  * Brings the CCU4 module to reset state and enables gating of the clock signal(if applicable depen
 836:/opt/XMClib/XMC_Peripheral_Library_v2.1.16/XMCLib/inc/xmc_ccu4.h ****  * on the device being selected).<BR>\n
 837:/opt/XMClib/XMC_Peripheral_Library_v2.1.16/XMCLib/inc/xmc_ccu4.h ****  * Invoke this API when a CCU4 module needs to be disabled completely.
 838:/opt/XMClib/XMC_Peripheral_Library_v2.1.16/XMCLib/inc/xmc_ccu4.h ****  * Any operation on the CCU4 module will have no effect after this API is called.
 839:/opt/XMClib/XMC_Peripheral_Library_v2.1.16/XMCLib/inc/xmc_ccu4.h ****  *
 840:/opt/XMClib/XMC_Peripheral_Library_v2.1.16/XMCLib/inc/xmc_ccu4.h ****  * \par<b>Related APIs:</b><br>
 841:/opt/XMClib/XMC_Peripheral_Library_v2.1.16/XMCLib/inc/xmc_ccu4.h ****  * XMC_CCU4_EnableModule()<BR> XMC_CCU4_DisableModule().
 842:/opt/XMClib/XMC_Peripheral_Library_v2.1.16/XMCLib/inc/xmc_ccu4.h ****  */
 843:/opt/XMClib/XMC_Peripheral_Library_v2.1.16/XMCLib/inc/xmc_ccu4.h **** void XMC_CCU4_DisableModule(XMC_CCU4_MODULE_t *const module);
 844:/opt/XMClib/XMC_Peripheral_Library_v2.1.16/XMCLib/inc/xmc_ccu4.h **** 
 845:/opt/XMClib/XMC_Peripheral_Library_v2.1.16/XMCLib/inc/xmc_ccu4.h **** /**
 846:/opt/XMClib/XMC_Peripheral_Library_v2.1.16/XMCLib/inc/xmc_ccu4.h ****  * @param module Constant pointer to CCU4 module
 847:/opt/XMClib/XMC_Peripheral_Library_v2.1.16/XMCLib/inc/xmc_ccu4.h ****  * @return <BR>
 848:/opt/XMClib/XMC_Peripheral_Library_v2.1.16/XMCLib/inc/xmc_ccu4.h ****  *    None<BR>
 849:/opt/XMClib/XMC_Peripheral_Library_v2.1.16/XMCLib/inc/xmc_ccu4.h ****  *
 850:/opt/XMClib/XMC_Peripheral_Library_v2.1.16/XMCLib/inc/xmc_ccu4.h ****  * \par<b>Description:</b><br>
 851:/opt/XMClib/XMC_Peripheral_Library_v2.1.16/XMCLib/inc/xmc_ccu4.h ****  *  Starts the prescaler and restores clocks to the timer slices, by setting GIDLC.SPRB bit.<BR>\n
 852:/opt/XMClib/XMC_Peripheral_Library_v2.1.16/XMCLib/inc/xmc_ccu4.h ****  *  Once the input to the prescaler has been chosen and the prescaler divider of all slices program
 853:/opt/XMClib/XMC_Peripheral_Library_v2.1.16/XMCLib/inc/xmc_ccu4.h ****  *  the prescaler itself may be started. Invoke this  API after XMC_CCU4_Init()
 854:/opt/XMClib/XMC_Peripheral_Library_v2.1.16/XMCLib/inc/xmc_ccu4.h ****  *  (Mandatory to fully initialize the module).Directly accessed register is GIDLC.
 855:/opt/XMClib/XMC_Peripheral_Library_v2.1.16/XMCLib/inc/xmc_ccu4.h ****  *
 856:/opt/XMClib/XMC_Peripheral_Library_v2.1.16/XMCLib/inc/xmc_ccu4.h ****  * \par<b>Related APIs:</b><br>
 857:/opt/XMClib/XMC_Peripheral_Library_v2.1.16/XMCLib/inc/xmc_ccu4.h ****  * XMC_CCU4_Init()<BR> XMC_CCU4_EnableClock()<BR> XMC_CCU4_DisableClock()<BR> XMC_CCU4_StartPrescal
 858:/opt/XMClib/XMC_Peripheral_Library_v2.1.16/XMCLib/inc/xmc_ccu4.h ****  * XMC_CCU4_StopPrescaler().
 859:/opt/XMClib/XMC_Peripheral_Library_v2.1.16/XMCLib/inc/xmc_ccu4.h ****  */
 860:/opt/XMClib/XMC_Peripheral_Library_v2.1.16/XMCLib/inc/xmc_ccu4.h **** __STATIC_INLINE void XMC_CCU4_StartPrescaler(XMC_CCU4_MODULE_t *const module)
 272              		.loc 2 860 22 view .LVU63
 273              	.LBB19:
 861:/opt/XMClib/XMC_Peripheral_Library_v2.1.16/XMCLib/inc/xmc_ccu4.h **** {
 862:/opt/XMClib/XMC_Peripheral_Library_v2.1.16/XMCLib/inc/xmc_ccu4.h ****   XMC_ASSERT("XMC_CCU4_StartPrescaler:Invalid Module Pointer", XMC_CCU4_IsValidModule(module));
 274              		.loc 2 862 3 view .LVU64
 275              		.loc 2 862 95 view .LVU65
 863:/opt/XMClib/XMC_Peripheral_Library_v2.1.16/XMCLib/inc/xmc_ccu4.h ****   module->GIDLC |= (uint32_t) CCU4_GIDLC_SPRB_Msk;
 276              		.loc 2 863 3 view .LVU66
 277              		.loc 2 863 17 is_stmt 0 view .LVU67
 278 000a E368     		ldr	r3, [r4, #12]
 279 000c 43F48073 		orr	r3, r3, #256
 280 0010 E360     		str	r3, [r4, #12]
 281              	.LVL26:
 282              		.loc 2 863 17 view .LVU68
 283              	.LBE19:
 284              	.LBE18:
 328:/opt/XMClib/XMC_Peripheral_Library_v2.1.16/XMCLib/src/xmc_ccu4.c ****   
 329:/opt/XMClib/XMC_Peripheral_Library_v2.1.16/XMCLib/src/xmc_ccu4.c ****   gctrl = module->GCTRL;
 285              		.loc 1 329 3 is_stmt 1 view .LVU69
 286              		.loc 1 329 9 is_stmt 0 view .LVU70
 287 0012 2368     		ldr	r3, [r4]
 288              	.LVL27:
 330:/opt/XMClib/XMC_Peripheral_Library_v2.1.16/XMCLib/src/xmc_ccu4.c ****   gctrl &= ~((uint32_t) CCU4_GCTRL_MSDE_Msk);
 289              		.loc 1 330 3 is_stmt 1 view .LVU71
 290              		.loc 1 330 9 is_stmt 0 view .LVU72
 291 0014 23F44043 		bic	r3, r3, #49152
 292              	.LVL28:
 331:/opt/XMClib/XMC_Peripheral_Library_v2.1.16/XMCLib/src/xmc_ccu4.c ****   gctrl |= ((uint32_t) mcs_action) << CCU4_GCTRL_MSDE_Pos;
 293              		.loc 1 331 3 is_stmt 1 view .LVU73
 294              		.loc 1 331 9 is_stmt 0 view .LVU74
 295 0018 43EA8533 		orr	r3, r3, r5, lsl #14
 296              	.LVL29:
 332:/opt/XMClib/XMC_Peripheral_Library_v2.1.16/XMCLib/src/xmc_ccu4.c ****   
 333:/opt/XMClib/XMC_Peripheral_Library_v2.1.16/XMCLib/src/xmc_ccu4.c ****   module->GCTRL = gctrl;
 297              		.loc 1 333 3 is_stmt 1 view .LVU75
 298              		.loc 1 333 17 is_stmt 0 view .LVU76
 299 001c 2360     		str	r3, [r4]
 334:/opt/XMClib/XMC_Peripheral_Library_v2.1.16/XMCLib/src/xmc_ccu4.c **** }
 300              		.loc 1 334 1 view .LVU77
 301 001e 38BD     		pop	{r3, r4, r5, pc}
 302              		.loc 1 334 1 view .LVU78
 303              		.cfi_endproc
 304              	.LFE207:
 306              		.section	.text.XMC_CCU4_SetModuleClock,"ax",%progbits
 307              		.align	1
 308              		.global	XMC_CCU4_SetModuleClock
 309              		.syntax unified
 310              		.thumb
 311              		.thumb_func
 312              		.fpu fpv4-sp-d16
 314              	XMC_CCU4_SetModuleClock:
 315              	.LVL30:
 316              	.LFB208:
 335:/opt/XMClib/XMC_Peripheral_Library_v2.1.16/XMCLib/src/xmc_ccu4.c **** 
 336:/opt/XMClib/XMC_Peripheral_Library_v2.1.16/XMCLib/src/xmc_ccu4.c **** /* API to select CCU4 module clock */
 337:/opt/XMClib/XMC_Peripheral_Library_v2.1.16/XMCLib/src/xmc_ccu4.c **** void XMC_CCU4_SetModuleClock(XMC_CCU4_MODULE_t *const module, const XMC_CCU4_CLOCK_t clock)
 338:/opt/XMClib/XMC_Peripheral_Library_v2.1.16/XMCLib/src/xmc_ccu4.c **** {
 317              		.loc 1 338 1 is_stmt 1 view -0
 318              		.cfi_startproc
 319              		@ args = 0, pretend = 0, frame = 0
 320              		@ frame_needed = 0, uses_anonymous_args = 0
 321              		@ link register save eliminated.
 339:/opt/XMClib/XMC_Peripheral_Library_v2.1.16/XMCLib/src/xmc_ccu4.c ****   uint32_t gctrl;
 322              		.loc 1 339 3 view .LVU80
 340:/opt/XMClib/XMC_Peripheral_Library_v2.1.16/XMCLib/src/xmc_ccu4.c **** 
 341:/opt/XMClib/XMC_Peripheral_Library_v2.1.16/XMCLib/src/xmc_ccu4.c ****   XMC_ASSERT("XMC_CCU4_SetModuleClock:Invalid Module Pointer", XMC_CCU4_IsValidModule(module));
 323              		.loc 1 341 3 view .LVU81
 324              		.loc 1 341 95 view .LVU82
 342:/opt/XMClib/XMC_Peripheral_Library_v2.1.16/XMCLib/src/xmc_ccu4.c ****   XMC_ASSERT("XMC_CCU4_SetModuleClock:Invalid Module Clock", XMC_CCU4_SLICE_CHECK_CLOCK(clock));
 325              		.loc 1 342 3 view .LVU83
 326              		.loc 1 342 96 view .LVU84
 343:/opt/XMClib/XMC_Peripheral_Library_v2.1.16/XMCLib/src/xmc_ccu4.c **** 
 344:/opt/XMClib/XMC_Peripheral_Library_v2.1.16/XMCLib/src/xmc_ccu4.c ****   gctrl = module->GCTRL;
 327              		.loc 1 344 3 view .LVU85
 328              		.loc 1 344 9 is_stmt 0 view .LVU86
 329 0000 0368     		ldr	r3, [r0]
 330              	.LVL31:
 345:/opt/XMClib/XMC_Peripheral_Library_v2.1.16/XMCLib/src/xmc_ccu4.c ****   gctrl &= ~((uint32_t) CCU4_GCTRL_PCIS_Msk);
 331              		.loc 1 345 3 is_stmt 1 view .LVU87
 332              		.loc 1 345 9 is_stmt 0 view .LVU88
 333 0002 23F03003 		bic	r3, r3, #48
 334              	.LVL32:
 346:/opt/XMClib/XMC_Peripheral_Library_v2.1.16/XMCLib/src/xmc_ccu4.c ****   gctrl |= ((uint32_t) clock) << CCU4_GCTRL_PCIS_Pos;
 335              		.loc 1 346 3 is_stmt 1 view .LVU89
 336              		.loc 1 346 9 is_stmt 0 view .LVU90
 337 0006 43EA0113 		orr	r3, r3, r1, lsl #4
 338              	.LVL33:
 347:/opt/XMClib/XMC_Peripheral_Library_v2.1.16/XMCLib/src/xmc_ccu4.c ****   
 348:/opt/XMClib/XMC_Peripheral_Library_v2.1.16/XMCLib/src/xmc_ccu4.c ****   module->GCTRL = gctrl;
 339              		.loc 1 348 3 is_stmt 1 view .LVU91
 340              		.loc 1 348 17 is_stmt 0 view .LVU92
 341 000a 0360     		str	r3, [r0]
 349:/opt/XMClib/XMC_Peripheral_Library_v2.1.16/XMCLib/src/xmc_ccu4.c **** }
 342              		.loc 1 349 1 view .LVU93
 343 000c 7047     		bx	lr
 344              		.cfi_endproc
 345              	.LFE208:
 347              		.section	.text.XMC_CCU4_SetMultiChannelShadowTransferMode,"ax",%progbits
 348              		.align	1
 349              		.global	XMC_CCU4_SetMultiChannelShadowTransferMode
 350              		.syntax unified
 351              		.thumb
 352              		.thumb_func
 353              		.fpu fpv4-sp-d16
 355              	XMC_CCU4_SetMultiChannelShadowTransferMode:
 356              	.LVL34:
 357              	.LFB209:
 350:/opt/XMClib/XMC_Peripheral_Library_v2.1.16/XMCLib/src/xmc_ccu4.c **** 
 351:/opt/XMClib/XMC_Peripheral_Library_v2.1.16/XMCLib/src/xmc_ccu4.c **** /* API to configure the multichannel shadow transfer request via SW and via the CCU4x.MCSS input. *
 352:/opt/XMClib/XMC_Peripheral_Library_v2.1.16/XMCLib/src/xmc_ccu4.c **** void XMC_CCU4_SetMultiChannelShadowTransferMode(XMC_CCU4_MODULE_t *const module, const uint32_t sli
 353:/opt/XMClib/XMC_Peripheral_Library_v2.1.16/XMCLib/src/xmc_ccu4.c **** {
 358              		.loc 1 353 1 is_stmt 1 view -0
 359              		.cfi_startproc
 360              		@ args = 0, pretend = 0, frame = 0
 361              		@ frame_needed = 0, uses_anonymous_args = 0
 362              		@ link register save eliminated.
 354:/opt/XMClib/XMC_Peripheral_Library_v2.1.16/XMCLib/src/xmc_ccu4.c ****   uint32_t gctrl;
 363              		.loc 1 354 3 view .LVU95
 355:/opt/XMClib/XMC_Peripheral_Library_v2.1.16/XMCLib/src/xmc_ccu4.c **** 
 356:/opt/XMClib/XMC_Peripheral_Library_v2.1.16/XMCLib/src/xmc_ccu4.c ****   XMC_ASSERT("XMC_CCU4_SetMultiChannelShadowTransferMode:Invalid module Pointer", XMC_CCU4_IsValidM
 364              		.loc 1 356 3 view .LVU96
 365              		.loc 1 356 114 view .LVU97
 357:/opt/XMClib/XMC_Peripheral_Library_v2.1.16/XMCLib/src/xmc_ccu4.c ****   
 358:/opt/XMClib/XMC_Peripheral_Library_v2.1.16/XMCLib/src/xmc_ccu4.c ****   gctrl = module->GCTRL;
 366              		.loc 1 358 3 view .LVU98
 367              		.loc 1 358 9 is_stmt 0 view .LVU99
 368 0000 0368     		ldr	r3, [r0]
 369              	.LVL35:
 359:/opt/XMClib/XMC_Peripheral_Library_v2.1.16/XMCLib/src/xmc_ccu4.c ****   gctrl &= ~((uint32_t)slice_mode_msk >> 16U);
 370              		.loc 1 359 3 is_stmt 1 view .LVU100
 371              		.loc 1 359 9 is_stmt 0 view .LVU101
 372 0002 23EA1143 		bic	r3, r3, r1, lsr #16
 373              	.LVL36:
 360:/opt/XMClib/XMC_Peripheral_Library_v2.1.16/XMCLib/src/xmc_ccu4.c ****   gctrl |= ((uint32_t)slice_mode_msk & 0xFFFFU);
 374              		.loc 1 360 3 is_stmt 1 view .LVU102
 375              		.loc 1 360 38 is_stmt 0 view .LVU103
 376 0006 89B2     		uxth	r1, r1
 377              	.LVL37:
 378              		.loc 1 360 9 view .LVU104
 379 0008 1943     		orrs	r1, r1, r3
 380              	.LVL38:
 361:/opt/XMClib/XMC_Peripheral_Library_v2.1.16/XMCLib/src/xmc_ccu4.c ****   module->GCTRL = gctrl;
 381              		.loc 1 361 3 is_stmt 1 view .LVU105
 382              		.loc 1 361 17 is_stmt 0 view .LVU106
 383 000a 0160     		str	r1, [r0]
 362:/opt/XMClib/XMC_Peripheral_Library_v2.1.16/XMCLib/src/xmc_ccu4.c **** }
 384              		.loc 1 362 1 view .LVU107
 385 000c 7047     		bx	lr
 386              		.cfi_endproc
 387              	.LFE209:
 389              		.section	.text.XMC_CCU4_SLICE_CompareInit,"ax",%progbits
 390              		.align	1
 391              		.global	XMC_CCU4_SLICE_CompareInit
 392              		.syntax unified
 393              		.thumb
 394              		.thumb_func
 395              		.fpu fpv4-sp-d16
 397              	XMC_CCU4_SLICE_CompareInit:
 398              	.LVL39:
 399              	.LFB210:
 363:/opt/XMClib/XMC_Peripheral_Library_v2.1.16/XMCLib/src/xmc_ccu4.c **** 
 364:/opt/XMClib/XMC_Peripheral_Library_v2.1.16/XMCLib/src/xmc_ccu4.c **** /* API to configure CC4 Slice as Timer */
 365:/opt/XMClib/XMC_Peripheral_Library_v2.1.16/XMCLib/src/xmc_ccu4.c **** void XMC_CCU4_SLICE_CompareInit(XMC_CCU4_SLICE_t *const slice,
 366:/opt/XMClib/XMC_Peripheral_Library_v2.1.16/XMCLib/src/xmc_ccu4.c ****                                 const XMC_CCU4_SLICE_COMPARE_CONFIG_t *const compare_init)
 367:/opt/XMClib/XMC_Peripheral_Library_v2.1.16/XMCLib/src/xmc_ccu4.c **** {
 400              		.loc 1 367 1 is_stmt 1 view -0
 401              		.cfi_startproc
 402              		@ args = 0, pretend = 0, frame = 0
 403              		@ frame_needed = 0, uses_anonymous_args = 0
 404              		@ link register save eliminated.
 368:/opt/XMClib/XMC_Peripheral_Library_v2.1.16/XMCLib/src/xmc_ccu4.c ****   XMC_ASSERT("XMC_CCU4_SLICE_CompareInit:Invalid Slice Pointer", XMC_CCU4_IsValidSlice(slice));
 405              		.loc 1 368 3 view .LVU109
 406              		.loc 1 368 95 view .LVU110
 369:/opt/XMClib/XMC_Peripheral_Library_v2.1.16/XMCLib/src/xmc_ccu4.c ****   XMC_ASSERT("XMC_CCU4_SLICE_CompareInit:Compare Init Pointer is NULL",
 407              		.loc 1 369 3 view .LVU111
 370:/opt/XMClib/XMC_Peripheral_Library_v2.1.16/XMCLib/src/xmc_ccu4.c ****              (XMC_CCU4_SLICE_COMPARE_CONFIG_t *) NULL != compare_init);
 408              		.loc 1 370 71 view .LVU112
 371:/opt/XMClib/XMC_Peripheral_Library_v2.1.16/XMCLib/src/xmc_ccu4.c **** 
 372:/opt/XMClib/XMC_Peripheral_Library_v2.1.16/XMCLib/src/xmc_ccu4.c ****   /* Program the timer mode */
 373:/opt/XMClib/XMC_Peripheral_Library_v2.1.16/XMCLib/src/xmc_ccu4.c ****   slice->TC = compare_init->tc;
 409              		.loc 1 373 3 view .LVU113
 410              		.loc 1 373 27 is_stmt 0 view .LVU114
 411 0000 0B68     		ldr	r3, [r1]
 412              		.loc 1 373 13 view .LVU115
 413 0002 4361     		str	r3, [r0, #20]
 374:/opt/XMClib/XMC_Peripheral_Library_v2.1.16/XMCLib/src/xmc_ccu4.c ****   /* Enable the timer concatenation */
 375:/opt/XMClib/XMC_Peripheral_Library_v2.1.16/XMCLib/src/xmc_ccu4.c ****   slice->CMC = ((uint32_t) compare_init->timer_concatenation << CCU4_CC4_CMC_TCE_Pos);
 414              		.loc 1 375 3 is_stmt 1 view .LVU116
 415              		.loc 1 375 40 is_stmt 0 view .LVU117
 416 0004 4B79     		ldrb	r3, [r1, #5]	@ zero_extendqisi2
 417              		.loc 1 375 17 view .LVU118
 418 0006 C3F34013 		ubfx	r3, r3, #5, #1
 419              		.loc 1 375 62 view .LVU119
 420 000a 1B05     		lsls	r3, r3, #20
 421              		.loc 1 375 14 view .LVU120
 422 000c 4360     		str	r3, [r0, #4]
 376:/opt/XMClib/XMC_Peripheral_Library_v2.1.16/XMCLib/src/xmc_ccu4.c ****   /* Program initial prescaler divider value */
 377:/opt/XMClib/XMC_Peripheral_Library_v2.1.16/XMCLib/src/xmc_ccu4.c ****   slice->PSC = (uint32_t) compare_init->prescaler_initval;
 423              		.loc 1 377 3 is_stmt 1 view .LVU121
 424              		.loc 1 377 39 is_stmt 0 view .LVU122
 425 000e 0B79     		ldrb	r3, [r1, #4]	@ zero_extendqisi2
 426              		.loc 1 377 16 view .LVU123
 427 0010 03F00F03 		and	r3, r3, #15
 428              		.loc 1 377 14 view .LVU124
 429 0014 4362     		str	r3, [r0, #36]
 378:/opt/XMClib/XMC_Peripheral_Library_v2.1.16/XMCLib/src/xmc_ccu4.c ****   /* Program the dither compare value */
 379:/opt/XMClib/XMC_Peripheral_Library_v2.1.16/XMCLib/src/xmc_ccu4.c ****   slice->DITS = (uint32_t) compare_init->dither_limit;
 430              		.loc 1 379 3 is_stmt 1 view .LVU125
 431              		.loc 1 379 40 is_stmt 0 view .LVU126
 432 0016 4B79     		ldrb	r3, [r1, #5]	@ zero_extendqisi2
 433              		.loc 1 379 17 view .LVU127
 434 0018 03F00F03 		and	r3, r3, #15
 435              		.loc 1 379 15 view .LVU128
 436 001c 0362     		str	r3, [r0, #32]
 380:/opt/XMClib/XMC_Peripheral_Library_v2.1.16/XMCLib/src/xmc_ccu4.c ****   /* Program timer output passive level */
 381:/opt/XMClib/XMC_Peripheral_Library_v2.1.16/XMCLib/src/xmc_ccu4.c ****   slice->PSL = (uint32_t) compare_init->passive_level;
 437              		.loc 1 381 3 is_stmt 1 view .LVU129
 438              		.loc 1 381 39 is_stmt 0 view .LVU130
 439 001e 4B79     		ldrb	r3, [r1, #5]	@ zero_extendqisi2
 440              		.loc 1 381 16 view .LVU131
 441 0020 C3F30013 		ubfx	r3, r3, #4, #1
 442              		.loc 1 381 14 view .LVU132
 443 0024 8361     		str	r3, [r0, #24]
 382:/opt/XMClib/XMC_Peripheral_Library_v2.1.16/XMCLib/src/xmc_ccu4.c ****   /* Program floating prescaler compare value */
 383:/opt/XMClib/XMC_Peripheral_Library_v2.1.16/XMCLib/src/xmc_ccu4.c ****   slice->FPCS = (uint32_t) compare_init->float_limit;
 444              		.loc 1 383 3 is_stmt 1 view .LVU133
 445              		.loc 1 383 40 is_stmt 0 view .LVU134
 446 0026 0B79     		ldrb	r3, [r1, #4]	@ zero_extendqisi2
 447              		.loc 1 383 17 view .LVU135
 448 0028 1B09     		lsrs	r3, r3, #4
 449              		.loc 1 383 15 view .LVU136
 450 002a C362     		str	r3, [r0, #44]
 384:/opt/XMClib/XMC_Peripheral_Library_v2.1.16/XMCLib/src/xmc_ccu4.c **** }
 451              		.loc 1 384 1 view .LVU137
 452 002c 7047     		bx	lr
 453              		.cfi_endproc
 454              	.LFE210:
 456              		.section	.text.XMC_CCU4_SLICE_CaptureInit,"ax",%progbits
 457              		.align	1
 458              		.global	XMC_CCU4_SLICE_CaptureInit
 459              		.syntax unified
 460              		.thumb
 461              		.thumb_func
 462              		.fpu fpv4-sp-d16
 464              	XMC_CCU4_SLICE_CaptureInit:
 465              	.LVL40:
 466              	.LFB211:
 385:/opt/XMClib/XMC_Peripheral_Library_v2.1.16/XMCLib/src/xmc_ccu4.c **** 
 386:/opt/XMClib/XMC_Peripheral_Library_v2.1.16/XMCLib/src/xmc_ccu4.c **** /* API to configure CC4 Slice for Capture */
 387:/opt/XMClib/XMC_Peripheral_Library_v2.1.16/XMCLib/src/xmc_ccu4.c **** void XMC_CCU4_SLICE_CaptureInit(XMC_CCU4_SLICE_t *const slice,
 388:/opt/XMClib/XMC_Peripheral_Library_v2.1.16/XMCLib/src/xmc_ccu4.c ****                             const XMC_CCU4_SLICE_CAPTURE_CONFIG_t *const capture_init)
 389:/opt/XMClib/XMC_Peripheral_Library_v2.1.16/XMCLib/src/xmc_ccu4.c **** {
 467              		.loc 1 389 1 is_stmt 1 view -0
 468              		.cfi_startproc
 469              		@ args = 0, pretend = 0, frame = 0
 470              		@ frame_needed = 0, uses_anonymous_args = 0
 471              		@ link register save eliminated.
 390:/opt/XMClib/XMC_Peripheral_Library_v2.1.16/XMCLib/src/xmc_ccu4.c ****   XMC_ASSERT("XMC_CCU4_SLICE_CaptureInit:Invalid Slice Pointer", XMC_CCU4_IsValidSlice(slice));
 472              		.loc 1 390 3 view .LVU139
 473              		.loc 1 390 95 view .LVU140
 391:/opt/XMClib/XMC_Peripheral_Library_v2.1.16/XMCLib/src/xmc_ccu4.c ****   XMC_ASSERT("XMC_CCU4_SLICE_CaptureInit:Capture Init Pointer is NULL",
 474              		.loc 1 391 3 view .LVU141
 392:/opt/XMClib/XMC_Peripheral_Library_v2.1.16/XMCLib/src/xmc_ccu4.c ****              (XMC_CCU4_SLICE_CAPTURE_CONFIG_t *) NULL != capture_init);
 475              		.loc 1 392 71 view .LVU142
 393:/opt/XMClib/XMC_Peripheral_Library_v2.1.16/XMCLib/src/xmc_ccu4.c **** 
 394:/opt/XMClib/XMC_Peripheral_Library_v2.1.16/XMCLib/src/xmc_ccu4.c ****   /* Program the capture mode */
 395:/opt/XMClib/XMC_Peripheral_Library_v2.1.16/XMCLib/src/xmc_ccu4.c ****   slice->TC = capture_init->tc;
 476              		.loc 1 395 3 view .LVU143
 477              		.loc 1 395 27 is_stmt 0 view .LVU144
 478 0000 0B68     		ldr	r3, [r1]
 479              		.loc 1 395 13 view .LVU145
 480 0002 4361     		str	r3, [r0, #20]
 396:/opt/XMClib/XMC_Peripheral_Library_v2.1.16/XMCLib/src/xmc_ccu4.c ****   /* Enable the timer concatenation */
 397:/opt/XMClib/XMC_Peripheral_Library_v2.1.16/XMCLib/src/xmc_ccu4.c ****   slice->CMC = ((uint32_t)capture_init->timer_concatenation << CCU4_CC4_CMC_TCE_Pos);
 481              		.loc 1 397 3 is_stmt 1 view .LVU146
 482              		.loc 1 397 39 is_stmt 0 view .LVU147
 483 0004 4B79     		ldrb	r3, [r1, #5]	@ zero_extendqisi2
 484              		.loc 1 397 17 view .LVU148
 485 0006 03F00103 		and	r3, r3, #1
 486              		.loc 1 397 61 view .LVU149
 487 000a 1B05     		lsls	r3, r3, #20
 488              		.loc 1 397 14 view .LVU150
 489 000c 4360     		str	r3, [r0, #4]
 398:/opt/XMClib/XMC_Peripheral_Library_v2.1.16/XMCLib/src/xmc_ccu4.c ****   /* Program initial prescaler divider value */
 399:/opt/XMClib/XMC_Peripheral_Library_v2.1.16/XMCLib/src/xmc_ccu4.c ****   slice->PSC = (uint32_t) capture_init->prescaler_initval;
 490              		.loc 1 399 3 is_stmt 1 view .LVU151
 491              		.loc 1 399 39 is_stmt 0 view .LVU152
 492 000e 0B79     		ldrb	r3, [r1, #4]	@ zero_extendqisi2
 493              		.loc 1 399 16 view .LVU153
 494 0010 03F00F03 		and	r3, r3, #15
 495              		.loc 1 399 14 view .LVU154
 496 0014 4362     		str	r3, [r0, #36]
 400:/opt/XMClib/XMC_Peripheral_Library_v2.1.16/XMCLib/src/xmc_ccu4.c ****   /* Program initial floating prescaler compare value */
 401:/opt/XMClib/XMC_Peripheral_Library_v2.1.16/XMCLib/src/xmc_ccu4.c ****   slice->FPCS = (uint32_t) capture_init->float_limit;
 497              		.loc 1 401 3 is_stmt 1 view .LVU155
 498              		.loc 1 401 40 is_stmt 0 view .LVU156
 499 0016 0B79     		ldrb	r3, [r1, #4]	@ zero_extendqisi2
 500              		.loc 1 401 17 view .LVU157
 501 0018 1B09     		lsrs	r3, r3, #4
 502              		.loc 1 401 15 view .LVU158
 503 001a C362     		str	r3, [r0, #44]
 402:/opt/XMClib/XMC_Peripheral_Library_v2.1.16/XMCLib/src/xmc_ccu4.c **** }
 504              		.loc 1 402 1 view .LVU159
 505 001c 7047     		bx	lr
 506              		.cfi_endproc
 507              	.LFE211:
 509              		.section	.text.XMC_CCU4_SLICE_StartConfig,"ax",%progbits
 510              		.align	1
 511              		.global	XMC_CCU4_SLICE_StartConfig
 512              		.syntax unified
 513              		.thumb
 514              		.thumb_func
 515              		.fpu fpv4-sp-d16
 517              	XMC_CCU4_SLICE_StartConfig:
 518              	.LVL41:
 519              	.LFB212:
 403:/opt/XMClib/XMC_Peripheral_Library_v2.1.16/XMCLib/src/xmc_ccu4.c **** 
 404:/opt/XMClib/XMC_Peripheral_Library_v2.1.16/XMCLib/src/xmc_ccu4.c **** 
 405:/opt/XMClib/XMC_Peripheral_Library_v2.1.16/XMCLib/src/xmc_ccu4.c **** /* API to configure the Start trigger function of a slice */
 406:/opt/XMClib/XMC_Peripheral_Library_v2.1.16/XMCLib/src/xmc_ccu4.c **** void XMC_CCU4_SLICE_StartConfig(XMC_CCU4_SLICE_t *const slice,
 407:/opt/XMClib/XMC_Peripheral_Library_v2.1.16/XMCLib/src/xmc_ccu4.c ****                             const XMC_CCU4_SLICE_EVENT_t event,
 408:/opt/XMClib/XMC_Peripheral_Library_v2.1.16/XMCLib/src/xmc_ccu4.c ****                                 const XMC_CCU4_SLICE_START_MODE_t start_mode)
 409:/opt/XMClib/XMC_Peripheral_Library_v2.1.16/XMCLib/src/xmc_ccu4.c **** {
 520              		.loc 1 409 1 is_stmt 1 view -0
 521              		.cfi_startproc
 522              		@ args = 0, pretend = 0, frame = 0
 523              		@ frame_needed = 0, uses_anonymous_args = 0
 524              		@ link register save eliminated.
 410:/opt/XMClib/XMC_Peripheral_Library_v2.1.16/XMCLib/src/xmc_ccu4.c ****   uint32_t cmc;
 525              		.loc 1 410 3 view .LVU161
 411:/opt/XMClib/XMC_Peripheral_Library_v2.1.16/XMCLib/src/xmc_ccu4.c ****   uint32_t tc;
 526              		.loc 1 411 3 view .LVU162
 412:/opt/XMClib/XMC_Peripheral_Library_v2.1.16/XMCLib/src/xmc_ccu4.c ****   
 413:/opt/XMClib/XMC_Peripheral_Library_v2.1.16/XMCLib/src/xmc_ccu4.c ****   XMC_ASSERT("XMC_CCU4_SLICE_StartConfig:Invalid Slice Pointer", XMC_CCU4_IsValidSlice(slice));
 527              		.loc 1 413 3 view .LVU163
 528              		.loc 1 413 95 view .LVU164
 414:/opt/XMClib/XMC_Peripheral_Library_v2.1.16/XMCLib/src/xmc_ccu4.c ****   XMC_ASSERT("XMC_CCU4_SLICE_StartConfig:Invalid Event ID", XMC_CCU4_SLICE_CHECK_EVENT_ID(event));
 529              		.loc 1 414 3 view .LVU165
 530              		.loc 1 414 98 view .LVU166
 415:/opt/XMClib/XMC_Peripheral_Library_v2.1.16/XMCLib/src/xmc_ccu4.c ****   XMC_ASSERT("XMC_CCU4_SLICE_StartConfig:Invalid Start Mode", 
 531              		.loc 1 415 3 view .LVU167
 416:/opt/XMClib/XMC_Peripheral_Library_v2.1.16/XMCLib/src/xmc_ccu4.c ****              ((start_mode == XMC_CCU4_SLICE_START_MODE_TIMER_START_CLEAR) ||\
 417:/opt/XMClib/XMC_Peripheral_Library_v2.1.16/XMCLib/src/xmc_ccu4.c ****               (start_mode == XMC_CCU4_SLICE_START_MODE_TIMER_START)));
 532              		.loc 1 417 70 view .LVU168
 418:/opt/XMClib/XMC_Peripheral_Library_v2.1.16/XMCLib/src/xmc_ccu4.c ****   /* First, Bind the event with the stop function */
 419:/opt/XMClib/XMC_Peripheral_Library_v2.1.16/XMCLib/src/xmc_ccu4.c ****   cmc = slice->CMC;
 533              		.loc 1 419 3 view .LVU169
 534              		.loc 1 419 7 is_stmt 0 view .LVU170
 535 0000 4368     		ldr	r3, [r0, #4]
 536              	.LVL42:
 420:/opt/XMClib/XMC_Peripheral_Library_v2.1.16/XMCLib/src/xmc_ccu4.c ****   cmc &= ~((uint32_t) CCU4_CC4_CMC_STRTS_Msk);
 537              		.loc 1 420 3 is_stmt 1 view .LVU171
 538              		.loc 1 420 7 is_stmt 0 view .LVU172
 539 0002 23F00303 		bic	r3, r3, #3
 540              	.LVL43:
 421:/opt/XMClib/XMC_Peripheral_Library_v2.1.16/XMCLib/src/xmc_ccu4.c ****   cmc |= ((uint32_t) event) << CCU4_CC4_CMC_STRTS_Pos;
 541              		.loc 1 421 3 is_stmt 1 view .LVU173
 542              		.loc 1 421 7 is_stmt 0 view .LVU174
 543 0006 1943     		orrs	r1, r1, r3
 544              	.LVL44:
 422:/opt/XMClib/XMC_Peripheral_Library_v2.1.16/XMCLib/src/xmc_ccu4.c **** 
 423:/opt/XMClib/XMC_Peripheral_Library_v2.1.16/XMCLib/src/xmc_ccu4.c ****   slice->CMC = cmc;
 545              		.loc 1 423 3 is_stmt 1 view .LVU175
 546              		.loc 1 423 14 is_stmt 0 view .LVU176
 547 0008 4160     		str	r1, [r0, #4]
 424:/opt/XMClib/XMC_Peripheral_Library_v2.1.16/XMCLib/src/xmc_ccu4.c ****   
 425:/opt/XMClib/XMC_Peripheral_Library_v2.1.16/XMCLib/src/xmc_ccu4.c ****   tc  = slice->TC;
 548              		.loc 1 425 3 is_stmt 1 view .LVU177
 549              		.loc 1 425 7 is_stmt 0 view .LVU178
 550 000a 4369     		ldr	r3, [r0, #20]
 551              	.LVL45:
 426:/opt/XMClib/XMC_Peripheral_Library_v2.1.16/XMCLib/src/xmc_ccu4.c ****   /* Next, Configure the start mode */
 427:/opt/XMClib/XMC_Peripheral_Library_v2.1.16/XMCLib/src/xmc_ccu4.c ****   if (start_mode == XMC_CCU4_SLICE_START_MODE_TIMER_START_CLEAR)
 552              		.loc 1 427 3 is_stmt 1 view .LVU179
 553              		.loc 1 427 6 is_stmt 0 view .LVU180
 554 000c 012A     		cmp	r2, #1
 428:/opt/XMClib/XMC_Peripheral_Library_v2.1.16/XMCLib/src/xmc_ccu4.c ****   {
 429:/opt/XMClib/XMC_Peripheral_Library_v2.1.16/XMCLib/src/xmc_ccu4.c ****     tc |= (uint32_t)CCU4_CC4_TC_STRM_Msk;
 555              		.loc 1 429 5 is_stmt 1 view .LVU181
 556              		.loc 1 429 8 is_stmt 0 view .LVU182
 557 000e 0CBF     		ite	eq
 558 0010 43F48063 		orreq	r3, r3, #1024
 559              	.LVL46:
 430:/opt/XMClib/XMC_Peripheral_Library_v2.1.16/XMCLib/src/xmc_ccu4.c ****   }
 431:/opt/XMClib/XMC_Peripheral_Library_v2.1.16/XMCLib/src/xmc_ccu4.c ****   else
 432:/opt/XMClib/XMC_Peripheral_Library_v2.1.16/XMCLib/src/xmc_ccu4.c ****   {
 433:/opt/XMClib/XMC_Peripheral_Library_v2.1.16/XMCLib/src/xmc_ccu4.c ****     tc &= ~((uint32_t)CCU4_CC4_TC_STRM_Msk);
 560              		.loc 1 433 5 is_stmt 1 view .LVU183
 561              		.loc 1 433 8 is_stmt 0 view .LVU184
 562 0014 23F48063 		bicne	r3, r3, #1024
 563              	.LVL47:
 434:/opt/XMClib/XMC_Peripheral_Library_v2.1.16/XMCLib/src/xmc_ccu4.c ****   }
 435:/opt/XMClib/XMC_Peripheral_Library_v2.1.16/XMCLib/src/xmc_ccu4.c ****   
 436:/opt/XMClib/XMC_Peripheral_Library_v2.1.16/XMCLib/src/xmc_ccu4.c ****   slice->TC = tc;
 564              		.loc 1 436 3 is_stmt 1 view .LVU185
 565              		.loc 1 436 13 is_stmt 0 view .LVU186
 566 0018 4361     		str	r3, [r0, #20]
 437:/opt/XMClib/XMC_Peripheral_Library_v2.1.16/XMCLib/src/xmc_ccu4.c **** }
 567              		.loc 1 437 1 view .LVU187
 568 001a 7047     		bx	lr
 569              		.cfi_endproc
 570              	.LFE212:
 572              		.section	.text.XMC_CCU4_SLICE_StopConfig,"ax",%progbits
 573              		.align	1
 574              		.global	XMC_CCU4_SLICE_StopConfig
 575              		.syntax unified
 576              		.thumb
 577              		.thumb_func
 578              		.fpu fpv4-sp-d16
 580              	XMC_CCU4_SLICE_StopConfig:
 581              	.LVL48:
 582              	.LFB213:
 438:/opt/XMClib/XMC_Peripheral_Library_v2.1.16/XMCLib/src/xmc_ccu4.c **** 
 439:/opt/XMClib/XMC_Peripheral_Library_v2.1.16/XMCLib/src/xmc_ccu4.c **** /* API to configure the Stop trigger function of a slice */
 440:/opt/XMClib/XMC_Peripheral_Library_v2.1.16/XMCLib/src/xmc_ccu4.c **** void XMC_CCU4_SLICE_StopConfig(XMC_CCU4_SLICE_t *const slice,
 441:/opt/XMClib/XMC_Peripheral_Library_v2.1.16/XMCLib/src/xmc_ccu4.c ****                            const XMC_CCU4_SLICE_EVENT_t event,
 442:/opt/XMClib/XMC_Peripheral_Library_v2.1.16/XMCLib/src/xmc_ccu4.c ****                                const XMC_CCU4_SLICE_END_MODE_t end_mode)
 443:/opt/XMClib/XMC_Peripheral_Library_v2.1.16/XMCLib/src/xmc_ccu4.c **** {
 583              		.loc 1 443 1 is_stmt 1 view -0
 584              		.cfi_startproc
 585              		@ args = 0, pretend = 0, frame = 0
 586              		@ frame_needed = 0, uses_anonymous_args = 0
 587              		@ link register save eliminated.
 588              		.loc 1 443 1 is_stmt 0 view .LVU189
 589 0000 10B4     		push	{r4}
 590              	.LCFI3:
 591              		.cfi_def_cfa_offset 4
 592              		.cfi_offset 4, -4
 444:/opt/XMClib/XMC_Peripheral_Library_v2.1.16/XMCLib/src/xmc_ccu4.c ****   uint32_t cmc;
 593              		.loc 1 444 3 is_stmt 1 view .LVU190
 445:/opt/XMClib/XMC_Peripheral_Library_v2.1.16/XMCLib/src/xmc_ccu4.c ****   uint32_t tc;
 594              		.loc 1 445 3 view .LVU191
 446:/opt/XMClib/XMC_Peripheral_Library_v2.1.16/XMCLib/src/xmc_ccu4.c ****   
 447:/opt/XMClib/XMC_Peripheral_Library_v2.1.16/XMCLib/src/xmc_ccu4.c ****   XMC_ASSERT("XMC_CCU4_SLICE_StopConfig:Invalid Slice Pointer", XMC_CCU4_IsValidSlice(slice));
 595              		.loc 1 447 3 view .LVU192
 596              		.loc 1 447 94 view .LVU193
 448:/opt/XMClib/XMC_Peripheral_Library_v2.1.16/XMCLib/src/xmc_ccu4.c ****   XMC_ASSERT("XMC_CCU4_SLICE_StopConfig:Invalid Event ID", XMC_CCU4_SLICE_CHECK_EVENT_ID(event));
 597              		.loc 1 448 3 view .LVU194
 598              		.loc 1 448 97 view .LVU195
 449:/opt/XMClib/XMC_Peripheral_Library_v2.1.16/XMCLib/src/xmc_ccu4.c ****   XMC_ASSERT("XMC_CCU4_SLICE_StopConfig:Invalid Start Mode", XMC_CCU4_CHECK_END_MODE(end_mode));
 599              		.loc 1 449 3 view .LVU196
 600              		.loc 1 449 96 view .LVU197
 450:/opt/XMClib/XMC_Peripheral_Library_v2.1.16/XMCLib/src/xmc_ccu4.c ****   
 451:/opt/XMClib/XMC_Peripheral_Library_v2.1.16/XMCLib/src/xmc_ccu4.c ****   /* First, Bind the event with the stop function */
 452:/opt/XMClib/XMC_Peripheral_Library_v2.1.16/XMCLib/src/xmc_ccu4.c ****   cmc = slice->CMC;
 601              		.loc 1 452 3 view .LVU198
 602              		.loc 1 452 7 is_stmt 0 view .LVU199
 603 0002 4468     		ldr	r4, [r0, #4]
 604              	.LVL49:
 453:/opt/XMClib/XMC_Peripheral_Library_v2.1.16/XMCLib/src/xmc_ccu4.c ****   cmc &= ~((uint32_t) CCU4_CC4_CMC_ENDS_Msk);
 605              		.loc 1 453 3 is_stmt 1 view .LVU200
 606              		.loc 1 453 7 is_stmt 0 view .LVU201
 607 0004 24F00C04 		bic	r4, r4, #12
 608              	.LVL50:
 454:/opt/XMClib/XMC_Peripheral_Library_v2.1.16/XMCLib/src/xmc_ccu4.c ****   cmc |= ((uint32_t) event) << CCU4_CC4_CMC_ENDS_Pos;
 609              		.loc 1 454 3 is_stmt 1 view .LVU202
 610              		.loc 1 454 7 is_stmt 0 view .LVU203
 611 0008 44EA8104 		orr	r4, r4, r1, lsl #2
 612              	.LVL51:
 455:/opt/XMClib/XMC_Peripheral_Library_v2.1.16/XMCLib/src/xmc_ccu4.c **** 
 456:/opt/XMClib/XMC_Peripheral_Library_v2.1.16/XMCLib/src/xmc_ccu4.c ****   slice->CMC = cmc;
 613              		.loc 1 456 3 is_stmt 1 view .LVU204
 614              		.loc 1 456 14 is_stmt 0 view .LVU205
 615 000c 4460     		str	r4, [r0, #4]
 457:/opt/XMClib/XMC_Peripheral_Library_v2.1.16/XMCLib/src/xmc_ccu4.c ****   
 458:/opt/XMClib/XMC_Peripheral_Library_v2.1.16/XMCLib/src/xmc_ccu4.c ****   /* Next, Configure the stop mode */
 459:/opt/XMClib/XMC_Peripheral_Library_v2.1.16/XMCLib/src/xmc_ccu4.c ****   tc = slice->TC;
 616              		.loc 1 459 3 is_stmt 1 view .LVU206
 617              		.loc 1 459 6 is_stmt 0 view .LVU207
 618 000e 4369     		ldr	r3, [r0, #20]
 619              	.LVL52:
 460:/opt/XMClib/XMC_Peripheral_Library_v2.1.16/XMCLib/src/xmc_ccu4.c ****   tc &= ~((uint32_t) CCU4_CC4_TC_ENDM_Msk);
 620              		.loc 1 460 3 is_stmt 1 view .LVU208
 621              		.loc 1 460 6 is_stmt 0 view .LVU209
 622 0010 23F44073 		bic	r3, r3, #768
 623              	.LVL53:
 461:/opt/XMClib/XMC_Peripheral_Library_v2.1.16/XMCLib/src/xmc_ccu4.c ****   tc |= ((uint32_t) end_mode) << CCU4_CC4_TC_ENDM_Pos;
 624              		.loc 1 461 3 is_stmt 1 view .LVU210
 625              		.loc 1 461 6 is_stmt 0 view .LVU211
 626 0014 43EA0223 		orr	r3, r3, r2, lsl #8
 627              	.LVL54:
 462:/opt/XMClib/XMC_Peripheral_Library_v2.1.16/XMCLib/src/xmc_ccu4.c **** 
 463:/opt/XMClib/XMC_Peripheral_Library_v2.1.16/XMCLib/src/xmc_ccu4.c ****   slice->TC = tc;
 628              		.loc 1 463 3 is_stmt 1 view .LVU212
 629              		.loc 1 463 13 is_stmt 0 view .LVU213
 630 0018 4361     		str	r3, [r0, #20]
 464:/opt/XMClib/XMC_Peripheral_Library_v2.1.16/XMCLib/src/xmc_ccu4.c **** }
 631              		.loc 1 464 1 view .LVU214
 632 001a 5DF8044B 		ldr	r4, [sp], #4
 633              	.LCFI4:
 634              		.cfi_restore 4
 635              		.cfi_def_cfa_offset 0
 636              	.LVL55:
 637              		.loc 1 464 1 view .LVU215
 638 001e 7047     		bx	lr
 639              		.cfi_endproc
 640              	.LFE213:
 642              		.section	.text.XMC_CCU4_SLICE_LoadConfig,"ax",%progbits
 643              		.align	1
 644              		.global	XMC_CCU4_SLICE_LoadConfig
 645              		.syntax unified
 646              		.thumb
 647              		.thumb_func
 648              		.fpu fpv4-sp-d16
 650              	XMC_CCU4_SLICE_LoadConfig:
 651              	.LVL56:
 652              	.LFB214:
 465:/opt/XMClib/XMC_Peripheral_Library_v2.1.16/XMCLib/src/xmc_ccu4.c **** 
 466:/opt/XMClib/XMC_Peripheral_Library_v2.1.16/XMCLib/src/xmc_ccu4.c **** /* API to configure the Load trigger function of a slice */
 467:/opt/XMClib/XMC_Peripheral_Library_v2.1.16/XMCLib/src/xmc_ccu4.c **** void XMC_CCU4_SLICE_LoadConfig(XMC_CCU4_SLICE_t *const slice, const XMC_CCU4_SLICE_EVENT_t event)
 468:/opt/XMClib/XMC_Peripheral_Library_v2.1.16/XMCLib/src/xmc_ccu4.c **** {
 653              		.loc 1 468 1 is_stmt 1 view -0
 654              		.cfi_startproc
 655              		@ args = 0, pretend = 0, frame = 0
 656              		@ frame_needed = 0, uses_anonymous_args = 0
 657              		@ link register save eliminated.
 469:/opt/XMClib/XMC_Peripheral_Library_v2.1.16/XMCLib/src/xmc_ccu4.c ****   uint32_t cmc;
 658              		.loc 1 469 3 view .LVU217
 470:/opt/XMClib/XMC_Peripheral_Library_v2.1.16/XMCLib/src/xmc_ccu4.c ****   
 471:/opt/XMClib/XMC_Peripheral_Library_v2.1.16/XMCLib/src/xmc_ccu4.c ****   XMC_ASSERT("XMC_CCU4_SLICE_LoadConfig:Invalid Slice Pointer", XMC_CCU4_IsValidSlice(slice));
 659              		.loc 1 471 3 view .LVU218
 660              		.loc 1 471 94 view .LVU219
 472:/opt/XMClib/XMC_Peripheral_Library_v2.1.16/XMCLib/src/xmc_ccu4.c ****   XMC_ASSERT("XMC_CCU4_SLICE_LoadConfig:Invalid Event ID", XMC_CCU4_SLICE_CHECK_EVENT_ID(event));
 661              		.loc 1 472 3 view .LVU220
 662              		.loc 1 472 97 view .LVU221
 473:/opt/XMClib/XMC_Peripheral_Library_v2.1.16/XMCLib/src/xmc_ccu4.c ****   
 474:/opt/XMClib/XMC_Peripheral_Library_v2.1.16/XMCLib/src/xmc_ccu4.c ****   /* Bind the event with the load function */
 475:/opt/XMClib/XMC_Peripheral_Library_v2.1.16/XMCLib/src/xmc_ccu4.c ****   cmc = slice->CMC;
 663              		.loc 1 475 3 view .LVU222
 664              		.loc 1 475 7 is_stmt 0 view .LVU223
 665 0000 4368     		ldr	r3, [r0, #4]
 666              	.LVL57:
 476:/opt/XMClib/XMC_Peripheral_Library_v2.1.16/XMCLib/src/xmc_ccu4.c ****   cmc &= ~((uint32_t) CCU4_CC4_CMC_LDS_Msk);
 667              		.loc 1 476 3 is_stmt 1 view .LVU224
 668              		.loc 1 476 7 is_stmt 0 view .LVU225
 669 0002 23F44053 		bic	r3, r3, #12288
 670              	.LVL58:
 477:/opt/XMClib/XMC_Peripheral_Library_v2.1.16/XMCLib/src/xmc_ccu4.c ****   cmc |= ((uint32_t) event) << CCU4_CC4_CMC_LDS_Pos;
 671              		.loc 1 477 3 is_stmt 1 view .LVU226
 672              		.loc 1 477 7 is_stmt 0 view .LVU227
 673 0006 43EA0133 		orr	r3, r3, r1, lsl #12
 674              	.LVL59:
 478:/opt/XMClib/XMC_Peripheral_Library_v2.1.16/XMCLib/src/xmc_ccu4.c **** 
 479:/opt/XMClib/XMC_Peripheral_Library_v2.1.16/XMCLib/src/xmc_ccu4.c ****   slice->CMC = cmc;
 675              		.loc 1 479 3 is_stmt 1 view .LVU228
 676              		.loc 1 479 14 is_stmt 0 view .LVU229
 677 000a 4360     		str	r3, [r0, #4]
 480:/opt/XMClib/XMC_Peripheral_Library_v2.1.16/XMCLib/src/xmc_ccu4.c **** }
 678              		.loc 1 480 1 view .LVU230
 679 000c 7047     		bx	lr
 680              		.cfi_endproc
 681              	.LFE214:
 683              		.section	.text.XMC_CCU4_SLICE_ModulationConfig,"ax",%progbits
 684              		.align	1
 685              		.global	XMC_CCU4_SLICE_ModulationConfig
 686              		.syntax unified
 687              		.thumb
 688              		.thumb_func
 689              		.fpu fpv4-sp-d16
 691              	XMC_CCU4_SLICE_ModulationConfig:
 692              	.LVL60:
 693              	.LFB215:
 481:/opt/XMClib/XMC_Peripheral_Library_v2.1.16/XMCLib/src/xmc_ccu4.c **** 
 482:/opt/XMClib/XMC_Peripheral_Library_v2.1.16/XMCLib/src/xmc_ccu4.c **** /* API to configure the slice modulation function */
 483:/opt/XMClib/XMC_Peripheral_Library_v2.1.16/XMCLib/src/xmc_ccu4.c **** void XMC_CCU4_SLICE_ModulationConfig(XMC_CCU4_SLICE_t *const slice,
 484:/opt/XMClib/XMC_Peripheral_Library_v2.1.16/XMCLib/src/xmc_ccu4.c ****                                      const XMC_CCU4_SLICE_EVENT_t event,
 485:/opt/XMClib/XMC_Peripheral_Library_v2.1.16/XMCLib/src/xmc_ccu4.c ****                                      const XMC_CCU4_SLICE_MODULATION_MODE_t mod_mode,
 486:/opt/XMClib/XMC_Peripheral_Library_v2.1.16/XMCLib/src/xmc_ccu4.c ****                                      const bool synch_with_pwm)
 487:/opt/XMClib/XMC_Peripheral_Library_v2.1.16/XMCLib/src/xmc_ccu4.c **** {
 694              		.loc 1 487 1 is_stmt 1 view -0
 695              		.cfi_startproc
 696              		@ args = 0, pretend = 0, frame = 0
 697              		@ frame_needed = 0, uses_anonymous_args = 0
 698              		@ link register save eliminated.
 699              		.loc 1 487 1 is_stmt 0 view .LVU232
 700 0000 30B4     		push	{r4, r5}
 701              	.LCFI5:
 702              		.cfi_def_cfa_offset 8
 703              		.cfi_offset 4, -8
 704              		.cfi_offset 5, -4
 488:/opt/XMClib/XMC_Peripheral_Library_v2.1.16/XMCLib/src/xmc_ccu4.c ****   uint32_t cmc;
 705              		.loc 1 488 3 is_stmt 1 view .LVU233
 489:/opt/XMClib/XMC_Peripheral_Library_v2.1.16/XMCLib/src/xmc_ccu4.c ****   uint32_t tc;
 706              		.loc 1 489 3 view .LVU234
 490:/opt/XMClib/XMC_Peripheral_Library_v2.1.16/XMCLib/src/xmc_ccu4.c ****   
 491:/opt/XMClib/XMC_Peripheral_Library_v2.1.16/XMCLib/src/xmc_ccu4.c ****   XMC_ASSERT("XMC_CCU4_SLICE_ModulationConfig:Invalid Slice Pointer", XMC_CCU4_IsValidSlice(slice))
 707              		.loc 1 491 3 view .LVU235
 708              		.loc 1 491 100 view .LVU236
 492:/opt/XMClib/XMC_Peripheral_Library_v2.1.16/XMCLib/src/xmc_ccu4.c ****   XMC_ASSERT("XMC_CCU4_SLICE_ModulationConfig:Invalid Event ID", XMC_CCU4_SLICE_CHECK_EVENT_ID(even
 709              		.loc 1 492 3 view .LVU237
 710              		.loc 1 492 103 view .LVU238
 493:/opt/XMClib/XMC_Peripheral_Library_v2.1.16/XMCLib/src/xmc_ccu4.c ****   XMC_ASSERT("XMC_CCU4_SLICE_ModulationConfig:Invalid Modulation Mode",
 711              		.loc 1 493 3 view .LVU239
 494:/opt/XMClib/XMC_Peripheral_Library_v2.1.16/XMCLib/src/xmc_ccu4.c ****              ((mod_mode == XMC_CCU4_SLICE_MODULATION_MODE_CLEAR_OUT) ||\
 495:/opt/XMClib/XMC_Peripheral_Library_v2.1.16/XMCLib/src/xmc_ccu4.c ****               (mod_mode == XMC_CCU4_SLICE_MODULATION_MODE_CLEAR_ST_OUT)));
 712              		.loc 1 495 74 view .LVU240
 496:/opt/XMClib/XMC_Peripheral_Library_v2.1.16/XMCLib/src/xmc_ccu4.c ****   
 497:/opt/XMClib/XMC_Peripheral_Library_v2.1.16/XMCLib/src/xmc_ccu4.c ****   tc  = slice->TC;
 713              		.loc 1 497 3 view .LVU241
 714              		.loc 1 497 7 is_stmt 0 view .LVU242
 715 0002 4469     		ldr	r4, [r0, #20]
 716              	.LVL61:
 498:/opt/XMClib/XMC_Peripheral_Library_v2.1.16/XMCLib/src/xmc_ccu4.c ****   cmc = slice->CMC;
 717              		.loc 1 498 3 is_stmt 1 view .LVU243
 718              		.loc 1 498 7 is_stmt 0 view .LVU244
 719 0004 4568     		ldr	r5, [r0, #4]
 720              	.LVL62:
 499:/opt/XMClib/XMC_Peripheral_Library_v2.1.16/XMCLib/src/xmc_ccu4.c ****   
 500:/opt/XMClib/XMC_Peripheral_Library_v2.1.16/XMCLib/src/xmc_ccu4.c ****   /* First, Bind the event with the modulation function */
 501:/opt/XMClib/XMC_Peripheral_Library_v2.1.16/XMCLib/src/xmc_ccu4.c ****   cmc &= ~((uint32_t) CCU4_CC4_CMC_MOS_Msk);
 721              		.loc 1 501 3 is_stmt 1 view .LVU245
 722              		.loc 1 501 7 is_stmt 0 view .LVU246
 723 0006 25F44025 		bic	r5, r5, #786432
 724              	.LVL63:
 502:/opt/XMClib/XMC_Peripheral_Library_v2.1.16/XMCLib/src/xmc_ccu4.c ****   cmc |= ((uint32_t) event) << CCU4_CC4_CMC_MOS_Pos;
 725              		.loc 1 502 3 is_stmt 1 view .LVU247
 726              		.loc 1 502 7 is_stmt 0 view .LVU248
 727 000a 45EA8145 		orr	r5, r5, r1, lsl #18
 728              	.LVL64:
 503:/opt/XMClib/XMC_Peripheral_Library_v2.1.16/XMCLib/src/xmc_ccu4.c ****   slice->CMC = cmc;
 729              		.loc 1 503 3 is_stmt 1 view .LVU249
 730              		.loc 1 503 14 is_stmt 0 view .LVU250
 731 000e 4560     		str	r5, [r0, #4]
 504:/opt/XMClib/XMC_Peripheral_Library_v2.1.16/XMCLib/src/xmc_ccu4.c ****   
 505:/opt/XMClib/XMC_Peripheral_Library_v2.1.16/XMCLib/src/xmc_ccu4.c ****   /* Next, Modulation mode */
 506:/opt/XMClib/XMC_Peripheral_Library_v2.1.16/XMCLib/src/xmc_ccu4.c ****   if (mod_mode == XMC_CCU4_SLICE_MODULATION_MODE_CLEAR_OUT)
 732              		.loc 1 506 3 is_stmt 1 view .LVU251
 733              		.loc 1 506 6 is_stmt 0 view .LVU252
 734 0010 012A     		cmp	r2, #1
 507:/opt/XMClib/XMC_Peripheral_Library_v2.1.16/XMCLib/src/xmc_ccu4.c ****   {
 508:/opt/XMClib/XMC_Peripheral_Library_v2.1.16/XMCLib/src/xmc_ccu4.c ****     tc |= (uint32_t) CCU4_CC4_TC_EMT_Msk;
 735              		.loc 1 508 5 is_stmt 1 view .LVU253
 736              		.loc 1 508 8 is_stmt 0 view .LVU254
 737 0012 0CBF     		ite	eq
 738 0014 44F08074 		orreq	r4, r4, #16777216
 739              	.LVL65:
 509:/opt/XMClib/XMC_Peripheral_Library_v2.1.16/XMCLib/src/xmc_ccu4.c ****   }
 510:/opt/XMClib/XMC_Peripheral_Library_v2.1.16/XMCLib/src/xmc_ccu4.c ****   else
 511:/opt/XMClib/XMC_Peripheral_Library_v2.1.16/XMCLib/src/xmc_ccu4.c ****   {
 512:/opt/XMClib/XMC_Peripheral_Library_v2.1.16/XMCLib/src/xmc_ccu4.c ****     tc &= ~((uint32_t) CCU4_CC4_TC_EMT_Msk);
 740              		.loc 1 512 5 is_stmt 1 view .LVU255
 741              		.loc 1 512 8 is_stmt 0 view .LVU256
 742 0018 24F08074 		bicne	r4, r4, #16777216
 743              	.LVL66:
 513:/opt/XMClib/XMC_Peripheral_Library_v2.1.16/XMCLib/src/xmc_ccu4.c ****   }
 514:/opt/XMClib/XMC_Peripheral_Library_v2.1.16/XMCLib/src/xmc_ccu4.c **** 
 515:/opt/XMClib/XMC_Peripheral_Library_v2.1.16/XMCLib/src/xmc_ccu4.c ****   /* Synchronization of modulation effect with PWM cycle */
 516:/opt/XMClib/XMC_Peripheral_Library_v2.1.16/XMCLib/src/xmc_ccu4.c ****   if (synch_with_pwm == (bool) true)
 744              		.loc 1 516 3 is_stmt 1 view .LVU257
 745              		.loc 1 516 6 is_stmt 0 view .LVU258
 746 001c 23B1     		cbz	r3, .L40
 517:/opt/XMClib/XMC_Peripheral_Library_v2.1.16/XMCLib/src/xmc_ccu4.c ****   {
 518:/opt/XMClib/XMC_Peripheral_Library_v2.1.16/XMCLib/src/xmc_ccu4.c ****     tc |= (uint32_t) CCU4_CC4_TC_EMS_Msk;
 747              		.loc 1 518 5 is_stmt 1 view .LVU259
 748              		.loc 1 518 8 is_stmt 0 view .LVU260
 749 001e 44F40004 		orr	r4, r4, #8388608
 750              	.LVL67:
 751              	.L41:
 519:/opt/XMClib/XMC_Peripheral_Library_v2.1.16/XMCLib/src/xmc_ccu4.c ****   }
 520:/opt/XMClib/XMC_Peripheral_Library_v2.1.16/XMCLib/src/xmc_ccu4.c ****   else
 521:/opt/XMClib/XMC_Peripheral_Library_v2.1.16/XMCLib/src/xmc_ccu4.c ****   {
 522:/opt/XMClib/XMC_Peripheral_Library_v2.1.16/XMCLib/src/xmc_ccu4.c ****     tc &= ~((uint32_t) CCU4_CC4_TC_EMS_Msk);
 523:/opt/XMClib/XMC_Peripheral_Library_v2.1.16/XMCLib/src/xmc_ccu4.c ****   }
 524:/opt/XMClib/XMC_Peripheral_Library_v2.1.16/XMCLib/src/xmc_ccu4.c ****   
 525:/opt/XMClib/XMC_Peripheral_Library_v2.1.16/XMCLib/src/xmc_ccu4.c ****   slice->TC = tc;
 752              		.loc 1 525 3 is_stmt 1 view .LVU261
 753              		.loc 1 525 13 is_stmt 0 view .LVU262
 754 0022 4461     		str	r4, [r0, #20]
 526:/opt/XMClib/XMC_Peripheral_Library_v2.1.16/XMCLib/src/xmc_ccu4.c **** }
 755              		.loc 1 526 1 view .LVU263
 756 0024 30BC     		pop	{r4, r5}
 757              	.LCFI6:
 758              		.cfi_remember_state
 759              		.cfi_restore 5
 760              		.cfi_restore 4
 761              		.cfi_def_cfa_offset 0
 762              	.LVL68:
 763              		.loc 1 526 1 view .LVU264
 764 0026 7047     		bx	lr
 765              	.LVL69:
 766              	.L40:
 767              	.LCFI7:
 768              		.cfi_restore_state
 522:/opt/XMClib/XMC_Peripheral_Library_v2.1.16/XMCLib/src/xmc_ccu4.c ****   }
 769              		.loc 1 522 5 is_stmt 1 view .LVU265
 522:/opt/XMClib/XMC_Peripheral_Library_v2.1.16/XMCLib/src/xmc_ccu4.c ****   }
 770              		.loc 1 522 8 is_stmt 0 view .LVU266
 771 0028 24F40004 		bic	r4, r4, #8388608
 772              	.LVL70:
 522:/opt/XMClib/XMC_Peripheral_Library_v2.1.16/XMCLib/src/xmc_ccu4.c ****   }
 773              		.loc 1 522 8 view .LVU267
 774 002c F9E7     		b	.L41
 775              		.cfi_endproc
 776              	.LFE215:
 778              		.section	.text.XMC_CCU4_SLICE_CountConfig,"ax",%progbits
 779              		.align	1
 780              		.global	XMC_CCU4_SLICE_CountConfig
 781              		.syntax unified
 782              		.thumb
 783              		.thumb_func
 784              		.fpu fpv4-sp-d16
 786              	XMC_CCU4_SLICE_CountConfig:
 787              	.LVL71:
 788              	.LFB216:
 527:/opt/XMClib/XMC_Peripheral_Library_v2.1.16/XMCLib/src/xmc_ccu4.c **** 
 528:/opt/XMClib/XMC_Peripheral_Library_v2.1.16/XMCLib/src/xmc_ccu4.c **** /* API to configure the slice count function */
 529:/opt/XMClib/XMC_Peripheral_Library_v2.1.16/XMCLib/src/xmc_ccu4.c **** void XMC_CCU4_SLICE_CountConfig(XMC_CCU4_SLICE_t *const slice, const XMC_CCU4_SLICE_EVENT_t event)
 530:/opt/XMClib/XMC_Peripheral_Library_v2.1.16/XMCLib/src/xmc_ccu4.c **** {
 789              		.loc 1 530 1 is_stmt 1 view -0
 790              		.cfi_startproc
 791              		@ args = 0, pretend = 0, frame = 0
 792              		@ frame_needed = 0, uses_anonymous_args = 0
 793              		@ link register save eliminated.
 531:/opt/XMClib/XMC_Peripheral_Library_v2.1.16/XMCLib/src/xmc_ccu4.c ****   uint32_t cmc;
 794              		.loc 1 531 3 view .LVU269
 532:/opt/XMClib/XMC_Peripheral_Library_v2.1.16/XMCLib/src/xmc_ccu4.c ****   
 533:/opt/XMClib/XMC_Peripheral_Library_v2.1.16/XMCLib/src/xmc_ccu4.c ****   XMC_ASSERT("XMC_CCU4_SLICE_CountConfig:Invalid Slice Pointer", XMC_CCU4_IsValidSlice(slice));
 795              		.loc 1 533 3 view .LVU270
 796              		.loc 1 533 95 view .LVU271
 534:/opt/XMClib/XMC_Peripheral_Library_v2.1.16/XMCLib/src/xmc_ccu4.c ****   XMC_ASSERT("XMC_CCU4_SLICE_CountConfig:Invalid Event ID", XMC_CCU4_SLICE_CHECK_EVENT_ID(event));
 797              		.loc 1 534 3 view .LVU272
 798              		.loc 1 534 98 view .LVU273
 535:/opt/XMClib/XMC_Peripheral_Library_v2.1.16/XMCLib/src/xmc_ccu4.c **** 
 536:/opt/XMClib/XMC_Peripheral_Library_v2.1.16/XMCLib/src/xmc_ccu4.c ****   /* Bind the event with the count function */
 537:/opt/XMClib/XMC_Peripheral_Library_v2.1.16/XMCLib/src/xmc_ccu4.c ****   cmc = slice->CMC;
 799              		.loc 1 537 3 view .LVU274
 800              		.loc 1 537 7 is_stmt 0 view .LVU275
 801 0000 4368     		ldr	r3, [r0, #4]
 802              	.LVL72:
 538:/opt/XMClib/XMC_Peripheral_Library_v2.1.16/XMCLib/src/xmc_ccu4.c ****   cmc &= ~((uint32_t) CCU4_CC4_CMC_CNTS_Msk);
 803              		.loc 1 538 3 is_stmt 1 view .LVU276
 804              		.loc 1 538 7 is_stmt 0 view .LVU277
 805 0002 23F44043 		bic	r3, r3, #49152
 806              	.LVL73:
 539:/opt/XMClib/XMC_Peripheral_Library_v2.1.16/XMCLib/src/xmc_ccu4.c ****   cmc |= ((uint32_t) event) << CCU4_CC4_CMC_CNTS_Pos;
 807              		.loc 1 539 3 is_stmt 1 view .LVU278
 808              		.loc 1 539 7 is_stmt 0 view .LVU279
 809 0006 43EA8133 		orr	r3, r3, r1, lsl #14
 810              	.LVL74:
 540:/opt/XMClib/XMC_Peripheral_Library_v2.1.16/XMCLib/src/xmc_ccu4.c **** 
 541:/opt/XMClib/XMC_Peripheral_Library_v2.1.16/XMCLib/src/xmc_ccu4.c ****   slice->CMC = cmc;
 811              		.loc 1 541 3 is_stmt 1 view .LVU280
 812              		.loc 1 541 14 is_stmt 0 view .LVU281
 813 000a 4360     		str	r3, [r0, #4]
 542:/opt/XMClib/XMC_Peripheral_Library_v2.1.16/XMCLib/src/xmc_ccu4.c **** }
 814              		.loc 1 542 1 view .LVU282
 815 000c 7047     		bx	lr
 816              		.cfi_endproc
 817              	.LFE216:
 819              		.section	.text.XMC_CCU4_SLICE_GateConfig,"ax",%progbits
 820              		.align	1
 821              		.global	XMC_CCU4_SLICE_GateConfig
 822              		.syntax unified
 823              		.thumb
 824              		.thumb_func
 825              		.fpu fpv4-sp-d16
 827              	XMC_CCU4_SLICE_GateConfig:
 828              	.LVL75:
 829              	.LFB217:
 543:/opt/XMClib/XMC_Peripheral_Library_v2.1.16/XMCLib/src/xmc_ccu4.c **** 
 544:/opt/XMClib/XMC_Peripheral_Library_v2.1.16/XMCLib/src/xmc_ccu4.c **** /* API to configure slice gate function */
 545:/opt/XMClib/XMC_Peripheral_Library_v2.1.16/XMCLib/src/xmc_ccu4.c **** void XMC_CCU4_SLICE_GateConfig(XMC_CCU4_SLICE_t *const slice, const XMC_CCU4_SLICE_EVENT_t event)
 546:/opt/XMClib/XMC_Peripheral_Library_v2.1.16/XMCLib/src/xmc_ccu4.c **** {
 830              		.loc 1 546 1 is_stmt 1 view -0
 831              		.cfi_startproc
 832              		@ args = 0, pretend = 0, frame = 0
 833              		@ frame_needed = 0, uses_anonymous_args = 0
 834              		@ link register save eliminated.
 547:/opt/XMClib/XMC_Peripheral_Library_v2.1.16/XMCLib/src/xmc_ccu4.c ****   uint32_t cmc;
 835              		.loc 1 547 3 view .LVU284
 548:/opt/XMClib/XMC_Peripheral_Library_v2.1.16/XMCLib/src/xmc_ccu4.c ****   
 549:/opt/XMClib/XMC_Peripheral_Library_v2.1.16/XMCLib/src/xmc_ccu4.c ****   XMC_ASSERT("XMC_CCU4_SLICE_GateConfig:Invalid Slice Pointer", XMC_CCU4_IsValidSlice(slice));
 836              		.loc 1 549 3 view .LVU285
 837              		.loc 1 549 94 view .LVU286
 550:/opt/XMClib/XMC_Peripheral_Library_v2.1.16/XMCLib/src/xmc_ccu4.c ****   XMC_ASSERT("XMC_CCU4_SLICE_GateConfig:Invalid Event ID", XMC_CCU4_SLICE_CHECK_EVENT_ID(event));
 838              		.loc 1 550 3 view .LVU287
 839              		.loc 1 550 97 view .LVU288
 551:/opt/XMClib/XMC_Peripheral_Library_v2.1.16/XMCLib/src/xmc_ccu4.c ****   
 552:/opt/XMClib/XMC_Peripheral_Library_v2.1.16/XMCLib/src/xmc_ccu4.c ****   /* Bind the event with the gate function */
 553:/opt/XMClib/XMC_Peripheral_Library_v2.1.16/XMCLib/src/xmc_ccu4.c ****   cmc = slice->CMC;
 840              		.loc 1 553 3 view .LVU289
 841              		.loc 1 553 7 is_stmt 0 view .LVU290
 842 0000 4368     		ldr	r3, [r0, #4]
 843              	.LVL76:
 554:/opt/XMClib/XMC_Peripheral_Library_v2.1.16/XMCLib/src/xmc_ccu4.c ****   cmc &= ~((uint32_t) CCU4_CC4_CMC_GATES_Msk);
 844              		.loc 1 554 3 is_stmt 1 view .LVU291
 845              		.loc 1 554 7 is_stmt 0 view .LVU292
 846 0002 23F44073 		bic	r3, r3, #768
 847              	.LVL77:
 555:/opt/XMClib/XMC_Peripheral_Library_v2.1.16/XMCLib/src/xmc_ccu4.c ****   cmc |= ((uint32_t) event) << CCU4_CC4_CMC_GATES_Pos;
 848              		.loc 1 555 3 is_stmt 1 view .LVU293
 849              		.loc 1 555 7 is_stmt 0 view .LVU294
 850 0006 43EA0123 		orr	r3, r3, r1, lsl #8
 851              	.LVL78:
 556:/opt/XMClib/XMC_Peripheral_Library_v2.1.16/XMCLib/src/xmc_ccu4.c **** 
 557:/opt/XMClib/XMC_Peripheral_Library_v2.1.16/XMCLib/src/xmc_ccu4.c ****   slice->CMC = cmc;
 852              		.loc 1 557 3 is_stmt 1 view .LVU295
 853              		.loc 1 557 14 is_stmt 0 view .LVU296
 854 000a 4360     		str	r3, [r0, #4]
 558:/opt/XMClib/XMC_Peripheral_Library_v2.1.16/XMCLib/src/xmc_ccu4.c **** }
 855              		.loc 1 558 1 view .LVU297
 856 000c 7047     		bx	lr
 857              		.cfi_endproc
 858              	.LFE217:
 860              		.section	.text.XMC_CCU4_SLICE_Capture0Config,"ax",%progbits
 861              		.align	1
 862              		.global	XMC_CCU4_SLICE_Capture0Config
 863              		.syntax unified
 864              		.thumb
 865              		.thumb_func
 866              		.fpu fpv4-sp-d16
 868              	XMC_CCU4_SLICE_Capture0Config:
 869              	.LVL79:
 870              	.LFB218:
 559:/opt/XMClib/XMC_Peripheral_Library_v2.1.16/XMCLib/src/xmc_ccu4.c **** 
 560:/opt/XMClib/XMC_Peripheral_Library_v2.1.16/XMCLib/src/xmc_ccu4.c **** /* API to configure Capture-0 function */
 561:/opt/XMClib/XMC_Peripheral_Library_v2.1.16/XMCLib/src/xmc_ccu4.c **** void XMC_CCU4_SLICE_Capture0Config(XMC_CCU4_SLICE_t *const slice, const XMC_CCU4_SLICE_EVENT_t even
 562:/opt/XMClib/XMC_Peripheral_Library_v2.1.16/XMCLib/src/xmc_ccu4.c **** {
 871              		.loc 1 562 1 is_stmt 1 view -0
 872              		.cfi_startproc
 873              		@ args = 0, pretend = 0, frame = 0
 874              		@ frame_needed = 0, uses_anonymous_args = 0
 875              		@ link register save eliminated.
 563:/opt/XMClib/XMC_Peripheral_Library_v2.1.16/XMCLib/src/xmc_ccu4.c ****   uint32_t cmc;
 876              		.loc 1 563 3 view .LVU299
 564:/opt/XMClib/XMC_Peripheral_Library_v2.1.16/XMCLib/src/xmc_ccu4.c ****   
 565:/opt/XMClib/XMC_Peripheral_Library_v2.1.16/XMCLib/src/xmc_ccu4.c ****   XMC_ASSERT("XMC_CCU4_SLICE_Capture0Config:Invalid Slice Pointer", XMC_CCU4_IsValidSlice(slice));
 877              		.loc 1 565 3 view .LVU300
 878              		.loc 1 565 98 view .LVU301
 566:/opt/XMClib/XMC_Peripheral_Library_v2.1.16/XMCLib/src/xmc_ccu4.c ****   XMC_ASSERT("XMC_CCU4_SLICE_Capture0Config:Invalid Event ID", XMC_CCU4_SLICE_CHECK_EVENT_ID(event)
 879              		.loc 1 566 3 view .LVU302
 880              		.loc 1 566 101 view .LVU303
 567:/opt/XMClib/XMC_Peripheral_Library_v2.1.16/XMCLib/src/xmc_ccu4.c ****   
 568:/opt/XMClib/XMC_Peripheral_Library_v2.1.16/XMCLib/src/xmc_ccu4.c ****   /* Bind the event with the gate function */
 569:/opt/XMClib/XMC_Peripheral_Library_v2.1.16/XMCLib/src/xmc_ccu4.c ****   cmc = slice->CMC;
 881              		.loc 1 569 3 view .LVU304
 882              		.loc 1 569 7 is_stmt 0 view .LVU305
 883 0000 4368     		ldr	r3, [r0, #4]
 884              	.LVL80:
 570:/opt/XMClib/XMC_Peripheral_Library_v2.1.16/XMCLib/src/xmc_ccu4.c ****   cmc &= ~((uint32_t) CCU4_CC4_CMC_CAP0S_Msk);
 885              		.loc 1 570 3 is_stmt 1 view .LVU306
 886              		.loc 1 570 7 is_stmt 0 view .LVU307
 887 0002 23F03003 		bic	r3, r3, #48
 888              	.LVL81:
 571:/opt/XMClib/XMC_Peripheral_Library_v2.1.16/XMCLib/src/xmc_ccu4.c ****   cmc |= ((uint32_t) event) << CCU4_CC4_CMC_CAP0S_Pos;
 889              		.loc 1 571 3 is_stmt 1 view .LVU308
 890              		.loc 1 571 7 is_stmt 0 view .LVU309
 891 0006 43EA0113 		orr	r3, r3, r1, lsl #4
 892              	.LVL82:
 572:/opt/XMClib/XMC_Peripheral_Library_v2.1.16/XMCLib/src/xmc_ccu4.c **** 
 573:/opt/XMClib/XMC_Peripheral_Library_v2.1.16/XMCLib/src/xmc_ccu4.c ****   slice->CMC = cmc;
 893              		.loc 1 573 3 is_stmt 1 view .LVU310
 894              		.loc 1 573 14 is_stmt 0 view .LVU311
 895 000a 4360     		str	r3, [r0, #4]
 574:/opt/XMClib/XMC_Peripheral_Library_v2.1.16/XMCLib/src/xmc_ccu4.c **** }
 896              		.loc 1 574 1 view .LVU312
 897 000c 7047     		bx	lr
 898              		.cfi_endproc
 899              	.LFE218:
 901              		.section	.text.XMC_CCU4_SLICE_Capture1Config,"ax",%progbits
 902              		.align	1
 903              		.global	XMC_CCU4_SLICE_Capture1Config
 904              		.syntax unified
 905              		.thumb
 906              		.thumb_func
 907              		.fpu fpv4-sp-d16
 909              	XMC_CCU4_SLICE_Capture1Config:
 910              	.LVL83:
 911              	.LFB219:
 575:/opt/XMClib/XMC_Peripheral_Library_v2.1.16/XMCLib/src/xmc_ccu4.c **** 
 576:/opt/XMClib/XMC_Peripheral_Library_v2.1.16/XMCLib/src/xmc_ccu4.c **** /* API to configure Capture-1 function */
 577:/opt/XMClib/XMC_Peripheral_Library_v2.1.16/XMCLib/src/xmc_ccu4.c **** void XMC_CCU4_SLICE_Capture1Config(XMC_CCU4_SLICE_t *const slice, const XMC_CCU4_SLICE_EVENT_t even
 578:/opt/XMClib/XMC_Peripheral_Library_v2.1.16/XMCLib/src/xmc_ccu4.c **** {
 912              		.loc 1 578 1 is_stmt 1 view -0
 913              		.cfi_startproc
 914              		@ args = 0, pretend = 0, frame = 0
 915              		@ frame_needed = 0, uses_anonymous_args = 0
 916              		@ link register save eliminated.
 579:/opt/XMClib/XMC_Peripheral_Library_v2.1.16/XMCLib/src/xmc_ccu4.c ****   uint32_t cmc;
 917              		.loc 1 579 3 view .LVU314
 580:/opt/XMClib/XMC_Peripheral_Library_v2.1.16/XMCLib/src/xmc_ccu4.c ****   
 581:/opt/XMClib/XMC_Peripheral_Library_v2.1.16/XMCLib/src/xmc_ccu4.c ****   XMC_ASSERT("XMC_CCU4_SLICE_Capture1Config:Invalid Slice Pointer", XMC_CCU4_IsValidSlice(slice));
 918              		.loc 1 581 3 view .LVU315
 919              		.loc 1 581 98 view .LVU316
 582:/opt/XMClib/XMC_Peripheral_Library_v2.1.16/XMCLib/src/xmc_ccu4.c ****   XMC_ASSERT("XMC_CCU4_SLICE_Capture1Config:Invalid Event ID", XMC_CCU4_SLICE_CHECK_EVENT_ID(event)
 920              		.loc 1 582 3 view .LVU317
 921              		.loc 1 582 101 view .LVU318
 583:/opt/XMClib/XMC_Peripheral_Library_v2.1.16/XMCLib/src/xmc_ccu4.c ****   
 584:/opt/XMClib/XMC_Peripheral_Library_v2.1.16/XMCLib/src/xmc_ccu4.c ****   /* Bind the event with the gate function */
 585:/opt/XMClib/XMC_Peripheral_Library_v2.1.16/XMCLib/src/xmc_ccu4.c ****   cmc = slice->CMC;
 922              		.loc 1 585 3 view .LVU319
 923              		.loc 1 585 7 is_stmt 0 view .LVU320
 924 0000 4368     		ldr	r3, [r0, #4]
 925              	.LVL84:
 586:/opt/XMClib/XMC_Peripheral_Library_v2.1.16/XMCLib/src/xmc_ccu4.c ****   cmc &= ~((uint32_t) CCU4_CC4_CMC_CAP1S_Msk);
 926              		.loc 1 586 3 is_stmt 1 view .LVU321
 927              		.loc 1 586 7 is_stmt 0 view .LVU322
 928 0002 23F0C003 		bic	r3, r3, #192
 929              	.LVL85:
 587:/opt/XMClib/XMC_Peripheral_Library_v2.1.16/XMCLib/src/xmc_ccu4.c ****   cmc |= ((uint32_t) event) << CCU4_CC4_CMC_CAP1S_Pos;
 930              		.loc 1 587 3 is_stmt 1 view .LVU323
 931              		.loc 1 587 7 is_stmt 0 view .LVU324
 932 0006 43EA8113 		orr	r3, r3, r1, lsl #6
 933              	.LVL86:
 588:/opt/XMClib/XMC_Peripheral_Library_v2.1.16/XMCLib/src/xmc_ccu4.c **** 
 589:/opt/XMClib/XMC_Peripheral_Library_v2.1.16/XMCLib/src/xmc_ccu4.c ****   slice->CMC = cmc;
 934              		.loc 1 589 3 is_stmt 1 view .LVU325
 935              		.loc 1 589 14 is_stmt 0 view .LVU326
 936 000a 4360     		str	r3, [r0, #4]
 590:/opt/XMClib/XMC_Peripheral_Library_v2.1.16/XMCLib/src/xmc_ccu4.c **** }
 937              		.loc 1 590 1 view .LVU327
 938 000c 7047     		bx	lr
 939              		.cfi_endproc
 940              	.LFE219:
 942              		.section	.text.XMC_CCU4_SLICE_DirectionConfig,"ax",%progbits
 943              		.align	1
 944              		.global	XMC_CCU4_SLICE_DirectionConfig
 945              		.syntax unified
 946              		.thumb
 947              		.thumb_func
 948              		.fpu fpv4-sp-d16
 950              	XMC_CCU4_SLICE_DirectionConfig:
 951              	.LVL87:
 952              	.LFB220:
 591:/opt/XMClib/XMC_Peripheral_Library_v2.1.16/XMCLib/src/xmc_ccu4.c **** 
 592:/opt/XMClib/XMC_Peripheral_Library_v2.1.16/XMCLib/src/xmc_ccu4.c **** /* API to configure direction function */
 593:/opt/XMClib/XMC_Peripheral_Library_v2.1.16/XMCLib/src/xmc_ccu4.c **** void XMC_CCU4_SLICE_DirectionConfig(XMC_CCU4_SLICE_t *const slice, const XMC_CCU4_SLICE_EVENT_t eve
 594:/opt/XMClib/XMC_Peripheral_Library_v2.1.16/XMCLib/src/xmc_ccu4.c **** {
 953              		.loc 1 594 1 is_stmt 1 view -0
 954              		.cfi_startproc
 955              		@ args = 0, pretend = 0, frame = 0
 956              		@ frame_needed = 0, uses_anonymous_args = 0
 957              		@ link register save eliminated.
 595:/opt/XMClib/XMC_Peripheral_Library_v2.1.16/XMCLib/src/xmc_ccu4.c ****   uint32_t cmc;
 958              		.loc 1 595 3 view .LVU329
 596:/opt/XMClib/XMC_Peripheral_Library_v2.1.16/XMCLib/src/xmc_ccu4.c ****   
 597:/opt/XMClib/XMC_Peripheral_Library_v2.1.16/XMCLib/src/xmc_ccu4.c ****   XMC_ASSERT("XMC_CCU4_SLICE_DirectionConfig:Invalid Slice Pointer", XMC_CCU4_IsValidSlice(slice));
 959              		.loc 1 597 3 view .LVU330
 960              		.loc 1 597 99 view .LVU331
 598:/opt/XMClib/XMC_Peripheral_Library_v2.1.16/XMCLib/src/xmc_ccu4.c ****   XMC_ASSERT("XMC_CCU4_SLICE_DirectionConfig:Invalid Event ID", XMC_CCU4_SLICE_CHECK_EVENT_ID(event
 961              		.loc 1 598 3 view .LVU332
 962              		.loc 1 598 102 view .LVU333
 599:/opt/XMClib/XMC_Peripheral_Library_v2.1.16/XMCLib/src/xmc_ccu4.c ****   
 600:/opt/XMClib/XMC_Peripheral_Library_v2.1.16/XMCLib/src/xmc_ccu4.c ****   /* Bind the event with the direction function */
 601:/opt/XMClib/XMC_Peripheral_Library_v2.1.16/XMCLib/src/xmc_ccu4.c ****   cmc = slice->CMC;
 963              		.loc 1 601 3 view .LVU334
 964              		.loc 1 601 7 is_stmt 0 view .LVU335
 965 0000 4368     		ldr	r3, [r0, #4]
 966              	.LVL88:
 602:/opt/XMClib/XMC_Peripheral_Library_v2.1.16/XMCLib/src/xmc_ccu4.c ****   cmc &= ~((uint32_t) CCU4_CC4_CMC_UDS_Msk);
 967              		.loc 1 602 3 is_stmt 1 view .LVU336
 968              		.loc 1 602 7 is_stmt 0 view .LVU337
 969 0002 23F44063 		bic	r3, r3, #3072
 970              	.LVL89:
 603:/opt/XMClib/XMC_Peripheral_Library_v2.1.16/XMCLib/src/xmc_ccu4.c ****   cmc |= ((uint32_t) event) << CCU4_CC4_CMC_UDS_Pos;
 971              		.loc 1 603 3 is_stmt 1 view .LVU338
 972              		.loc 1 603 7 is_stmt 0 view .LVU339
 973 0006 43EA8123 		orr	r3, r3, r1, lsl #10
 974              	.LVL90:
 604:/opt/XMClib/XMC_Peripheral_Library_v2.1.16/XMCLib/src/xmc_ccu4.c ****   
 605:/opt/XMClib/XMC_Peripheral_Library_v2.1.16/XMCLib/src/xmc_ccu4.c ****   slice->CMC = cmc;
 975              		.loc 1 605 3 is_stmt 1 view .LVU340
 976              		.loc 1 605 14 is_stmt 0 view .LVU341
 977 000a 4360     		str	r3, [r0, #4]
 606:/opt/XMClib/XMC_Peripheral_Library_v2.1.16/XMCLib/src/xmc_ccu4.c **** }
 978              		.loc 1 606 1 view .LVU342
 979 000c 7047     		bx	lr
 980              		.cfi_endproc
 981              	.LFE220:
 983              		.section	.text.XMC_CCU4_SLICE_StatusBitOverrideConfig,"ax",%progbits
 984              		.align	1
 985              		.global	XMC_CCU4_SLICE_StatusBitOverrideConfig
 986              		.syntax unified
 987              		.thumb
 988              		.thumb_func
 989              		.fpu fpv4-sp-d16
 991              	XMC_CCU4_SLICE_StatusBitOverrideConfig:
 992              	.LVL91:
 993              	.LFB221:
 607:/opt/XMClib/XMC_Peripheral_Library_v2.1.16/XMCLib/src/xmc_ccu4.c **** 
 608:/opt/XMClib/XMC_Peripheral_Library_v2.1.16/XMCLib/src/xmc_ccu4.c **** /* API to configure slice status bit override function */
 609:/opt/XMClib/XMC_Peripheral_Library_v2.1.16/XMCLib/src/xmc_ccu4.c **** void XMC_CCU4_SLICE_StatusBitOverrideConfig(XMC_CCU4_SLICE_t *const slice)
 610:/opt/XMClib/XMC_Peripheral_Library_v2.1.16/XMCLib/src/xmc_ccu4.c **** {
 994              		.loc 1 610 1 is_stmt 1 view -0
 995              		.cfi_startproc
 996              		@ args = 0, pretend = 0, frame = 0
 997              		@ frame_needed = 0, uses_anonymous_args = 0
 998              		@ link register save eliminated.
 611:/opt/XMClib/XMC_Peripheral_Library_v2.1.16/XMCLib/src/xmc_ccu4.c ****   uint32_t cmc;
 999              		.loc 1 611 3 view .LVU344
 612:/opt/XMClib/XMC_Peripheral_Library_v2.1.16/XMCLib/src/xmc_ccu4.c ****   
 613:/opt/XMClib/XMC_Peripheral_Library_v2.1.16/XMCLib/src/xmc_ccu4.c ****   XMC_ASSERT("XMC_CCU4_SLICE_StatusBitOverrideConfig:Invalid Slice Pointer", XMC_CCU4_IsValidSlice(
 1000              		.loc 1 613 3 view .LVU345
 1001              		.loc 1 613 107 view .LVU346
 614:/opt/XMClib/XMC_Peripheral_Library_v2.1.16/XMCLib/src/xmc_ccu4.c ****   
 615:/opt/XMClib/XMC_Peripheral_Library_v2.1.16/XMCLib/src/xmc_ccu4.c ****   /* Bind the event with the override function */
 616:/opt/XMClib/XMC_Peripheral_Library_v2.1.16/XMCLib/src/xmc_ccu4.c ****   cmc = slice->CMC;
 1002              		.loc 1 616 3 view .LVU347
 1003              		.loc 1 616 7 is_stmt 0 view .LVU348
 1004 0000 4368     		ldr	r3, [r0, #4]
 1005              	.LVL92:
 617:/opt/XMClib/XMC_Peripheral_Library_v2.1.16/XMCLib/src/xmc_ccu4.c ****   /* Map status bit trigger override to Event 1 & 
 618:/opt/XMClib/XMC_Peripheral_Library_v2.1.16/XMCLib/src/xmc_ccu4.c ****          status bit value override to Event 2 */
 619:/opt/XMClib/XMC_Peripheral_Library_v2.1.16/XMCLib/src/xmc_ccu4.c ****   cmc &= ~((uint32_t) CCU4_CC4_CMC_OFS_Msk);
 1006              		.loc 1 619 3 is_stmt 1 view .LVU349
 620:/opt/XMClib/XMC_Peripheral_Library_v2.1.16/XMCLib/src/xmc_ccu4.c ****   cmc |= ((uint32_t) 1) << CCU4_CC4_CMC_OFS_Pos;
 1007              		.loc 1 620 3 view .LVU350
 1008              		.loc 1 620 7 is_stmt 0 view .LVU351
 1009 0002 43F48033 		orr	r3, r3, #65536
 1010              	.LVL93:
 621:/opt/XMClib/XMC_Peripheral_Library_v2.1.16/XMCLib/src/xmc_ccu4.c **** 
 622:/opt/XMClib/XMC_Peripheral_Library_v2.1.16/XMCLib/src/xmc_ccu4.c ****   slice->CMC = cmc;
 1011              		.loc 1 622 3 is_stmt 1 view .LVU352
 1012              		.loc 1 622 14 is_stmt 0 view .LVU353
 1013 0006 4360     		str	r3, [r0, #4]
 623:/opt/XMClib/XMC_Peripheral_Library_v2.1.16/XMCLib/src/xmc_ccu4.c **** }
 1014              		.loc 1 623 1 view .LVU354
 1015 0008 7047     		bx	lr
 1016              		.cfi_endproc
 1017              	.LFE221:
 1019              		.section	.text.XMC_CCU4_SLICE_TrapConfig,"ax",%progbits
 1020              		.align	1
 1021              		.global	XMC_CCU4_SLICE_TrapConfig
 1022              		.syntax unified
 1023              		.thumb
 1024              		.thumb_func
 1025              		.fpu fpv4-sp-d16
 1027              	XMC_CCU4_SLICE_TrapConfig:
 1028              	.LVL94:
 1029              	.LFB222:
 624:/opt/XMClib/XMC_Peripheral_Library_v2.1.16/XMCLib/src/xmc_ccu4.c **** 
 625:/opt/XMClib/XMC_Peripheral_Library_v2.1.16/XMCLib/src/xmc_ccu4.c **** /* API to configure trap function */
 626:/opt/XMClib/XMC_Peripheral_Library_v2.1.16/XMCLib/src/xmc_ccu4.c **** void XMC_CCU4_SLICE_TrapConfig(XMC_CCU4_SLICE_t *const slice,
 627:/opt/XMClib/XMC_Peripheral_Library_v2.1.16/XMCLib/src/xmc_ccu4.c ****                                const XMC_CCU4_SLICE_TRAP_EXIT_MODE_t exit_mode,
 628:/opt/XMClib/XMC_Peripheral_Library_v2.1.16/XMCLib/src/xmc_ccu4.c ****                                const bool synch_with_pwm)
 629:/opt/XMClib/XMC_Peripheral_Library_v2.1.16/XMCLib/src/xmc_ccu4.c **** {
 1030              		.loc 1 629 1 is_stmt 1 view -0
 1031              		.cfi_startproc
 1032              		@ args = 0, pretend = 0, frame = 0
 1033              		@ frame_needed = 0, uses_anonymous_args = 0
 1034              		@ link register save eliminated.
 630:/opt/XMClib/XMC_Peripheral_Library_v2.1.16/XMCLib/src/xmc_ccu4.c ****   uint32_t cmc;
 1035              		.loc 1 630 3 view .LVU356
 631:/opt/XMClib/XMC_Peripheral_Library_v2.1.16/XMCLib/src/xmc_ccu4.c ****   uint32_t tc;
 1036              		.loc 1 631 3 view .LVU357
 632:/opt/XMClib/XMC_Peripheral_Library_v2.1.16/XMCLib/src/xmc_ccu4.c ****   
 633:/opt/XMClib/XMC_Peripheral_Library_v2.1.16/XMCLib/src/xmc_ccu4.c ****   XMC_ASSERT("XMC_CCU4_SLICE_TrapConfig:Invalid Slice Pointer", XMC_CCU4_IsValidSlice(slice));
 1037              		.loc 1 633 3 view .LVU358
 1038              		.loc 1 633 94 view .LVU359
 634:/opt/XMClib/XMC_Peripheral_Library_v2.1.16/XMCLib/src/xmc_ccu4.c ****   XMC_ASSERT("XMC_CCU4_SLICE_TrapConfig:Invalid Exit Mode", ((exit_mode == XMC_CCU4_SLICE_TRAP_EXIT
 1039              		.loc 1 634 3 view .LVU360
 635:/opt/XMClib/XMC_Peripheral_Library_v2.1.16/XMCLib/src/xmc_ccu4.c ****                                                              (exit_mode == XMC_CCU4_SLICE_TRAP_EXIT
 1040              		.loc 1 635 111 view .LVU361
 636:/opt/XMClib/XMC_Peripheral_Library_v2.1.16/XMCLib/src/xmc_ccu4.c ****     
 637:/opt/XMClib/XMC_Peripheral_Library_v2.1.16/XMCLib/src/xmc_ccu4.c ****   /* First, Map trap function to Event 2 */
 638:/opt/XMClib/XMC_Peripheral_Library_v2.1.16/XMCLib/src/xmc_ccu4.c ****   cmc = slice->CMC;
 1041              		.loc 1 638 3 view .LVU362
 1042              		.loc 1 638 7 is_stmt 0 view .LVU363
 1043 0000 4368     		ldr	r3, [r0, #4]
 1044              	.LVL95:
 639:/opt/XMClib/XMC_Peripheral_Library_v2.1.16/XMCLib/src/xmc_ccu4.c ****   cmc &= ~((uint32_t) CCU4_CC4_CMC_TS_Msk);
 1045              		.loc 1 639 3 is_stmt 1 view .LVU364
 640:/opt/XMClib/XMC_Peripheral_Library_v2.1.16/XMCLib/src/xmc_ccu4.c ****   cmc |= ((uint32_t) 1) << CCU4_CC4_CMC_TS_Pos;
 1046              		.loc 1 640 3 view .LVU365
 1047              		.loc 1 640 7 is_stmt 0 view .LVU366
 1048 0002 43F40033 		orr	r3, r3, #131072
 1049              	.LVL96:
 641:/opt/XMClib/XMC_Peripheral_Library_v2.1.16/XMCLib/src/xmc_ccu4.c ****   slice->CMC = cmc;
 1050              		.loc 1 641 3 is_stmt 1 view .LVU367
 1051              		.loc 1 641 14 is_stmt 0 view .LVU368
 1052 0006 4360     		str	r3, [r0, #4]
 642:/opt/XMClib/XMC_Peripheral_Library_v2.1.16/XMCLib/src/xmc_ccu4.c ****   
 643:/opt/XMClib/XMC_Peripheral_Library_v2.1.16/XMCLib/src/xmc_ccu4.c ****   /* Next, Configure synchronization option */
 644:/opt/XMClib/XMC_Peripheral_Library_v2.1.16/XMCLib/src/xmc_ccu4.c ****   tc = slice->TC;
 1053              		.loc 1 644 3 is_stmt 1 view .LVU369
 1054              		.loc 1 644 6 is_stmt 0 view .LVU370
 1055 0008 4369     		ldr	r3, [r0, #20]
 1056              	.LVL97:
 645:/opt/XMClib/XMC_Peripheral_Library_v2.1.16/XMCLib/src/xmc_ccu4.c **** 
 646:/opt/XMClib/XMC_Peripheral_Library_v2.1.16/XMCLib/src/xmc_ccu4.c ****   if (synch_with_pwm == (bool) true)
 1057              		.loc 1 646 3 is_stmt 1 view .LVU371
 1058              		.loc 1 646 6 is_stmt 0 view .LVU372
 1059 000a 4AB1     		cbz	r2, .L50
 647:/opt/XMClib/XMC_Peripheral_Library_v2.1.16/XMCLib/src/xmc_ccu4.c ****   {
 648:/opt/XMClib/XMC_Peripheral_Library_v2.1.16/XMCLib/src/xmc_ccu4.c ****     tc |= (uint32_t) CCU4_CC4_TC_TRPSE_Msk;
 1060              		.loc 1 648 5 is_stmt 1 view .LVU373
 1061              		.loc 1 648 8 is_stmt 0 view .LVU374
 1062 000c 43F40013 		orr	r3, r3, #2097152
 1063              	.LVL98:
 1064              	.L51:
 649:/opt/XMClib/XMC_Peripheral_Library_v2.1.16/XMCLib/src/xmc_ccu4.c ****   }
 650:/opt/XMClib/XMC_Peripheral_Library_v2.1.16/XMCLib/src/xmc_ccu4.c ****   else
 651:/opt/XMClib/XMC_Peripheral_Library_v2.1.16/XMCLib/src/xmc_ccu4.c ****   {
 652:/opt/XMClib/XMC_Peripheral_Library_v2.1.16/XMCLib/src/xmc_ccu4.c ****     tc &= ~((uint32_t) CCU4_CC4_TC_TRPSE_Msk);
 653:/opt/XMClib/XMC_Peripheral_Library_v2.1.16/XMCLib/src/xmc_ccu4.c ****   }
 654:/opt/XMClib/XMC_Peripheral_Library_v2.1.16/XMCLib/src/xmc_ccu4.c ****   
 655:/opt/XMClib/XMC_Peripheral_Library_v2.1.16/XMCLib/src/xmc_ccu4.c ****   /* Configure exit mode */
 656:/opt/XMClib/XMC_Peripheral_Library_v2.1.16/XMCLib/src/xmc_ccu4.c ****   if (exit_mode == XMC_CCU4_SLICE_TRAP_EXIT_MODE_SW)
 1065              		.loc 1 656 3 is_stmt 1 view .LVU375
 1066              		.loc 1 656 6 is_stmt 0 view .LVU376
 1067 0010 0129     		cmp	r1, #1
 657:/opt/XMClib/XMC_Peripheral_Library_v2.1.16/XMCLib/src/xmc_ccu4.c ****   {
 658:/opt/XMClib/XMC_Peripheral_Library_v2.1.16/XMCLib/src/xmc_ccu4.c ****     tc |= (uint32_t) CCU4_CC4_TC_TRPSW_Msk;
 1068              		.loc 1 658 5 is_stmt 1 view .LVU377
 1069              		.loc 1 658 8 is_stmt 0 view .LVU378
 1070 0012 0CBF     		ite	eq
 1071 0014 43F48003 		orreq	r3, r3, #4194304
 1072              	.LVL99:
 659:/opt/XMClib/XMC_Peripheral_Library_v2.1.16/XMCLib/src/xmc_ccu4.c ****   }
 660:/opt/XMClib/XMC_Peripheral_Library_v2.1.16/XMCLib/src/xmc_ccu4.c ****   else
 661:/opt/XMClib/XMC_Peripheral_Library_v2.1.16/XMCLib/src/xmc_ccu4.c ****   {
 662:/opt/XMClib/XMC_Peripheral_Library_v2.1.16/XMCLib/src/xmc_ccu4.c ****     tc &= ~((uint32_t) CCU4_CC4_TC_TRPSW_Msk);
 1073              		.loc 1 662 5 is_stmt 1 view .LVU379
 1074              		.loc 1 662 8 is_stmt 0 view .LVU380
 1075 0018 23F48003 		bicne	r3, r3, #4194304
 1076              	.LVL100:
 663:/opt/XMClib/XMC_Peripheral_Library_v2.1.16/XMCLib/src/xmc_ccu4.c ****   }
 664:/opt/XMClib/XMC_Peripheral_Library_v2.1.16/XMCLib/src/xmc_ccu4.c ****   
 665:/opt/XMClib/XMC_Peripheral_Library_v2.1.16/XMCLib/src/xmc_ccu4.c ****   slice->TC = tc;
 1077              		.loc 1 665 3 is_stmt 1 view .LVU381
 1078              		.loc 1 665 13 is_stmt 0 view .LVU382
 1079 001c 4361     		str	r3, [r0, #20]
 1080              	.LVL101:
 666:/opt/XMClib/XMC_Peripheral_Library_v2.1.16/XMCLib/src/xmc_ccu4.c **** }
 1081              		.loc 1 666 1 view .LVU383
 1082 001e 7047     		bx	lr
 1083              	.LVL102:
 1084              	.L50:
 652:/opt/XMClib/XMC_Peripheral_Library_v2.1.16/XMCLib/src/xmc_ccu4.c ****   }
 1085              		.loc 1 652 5 is_stmt 1 view .LVU384
 652:/opt/XMClib/XMC_Peripheral_Library_v2.1.16/XMCLib/src/xmc_ccu4.c ****   }
 1086              		.loc 1 652 8 is_stmt 0 view .LVU385
 1087 0020 23F40013 		bic	r3, r3, #2097152
 1088              	.LVL103:
 652:/opt/XMClib/XMC_Peripheral_Library_v2.1.16/XMCLib/src/xmc_ccu4.c ****   }
 1089              		.loc 1 652 8 view .LVU386
 1090 0024 F4E7     		b	.L51
 1091              		.cfi_endproc
 1092              	.LFE222:
 1094              		.section	.text.XMC_CCU4_SLICE_ConfigureStatusBitOverrideEvent,"ax",%progbits
 1095              		.align	1
 1096              		.global	XMC_CCU4_SLICE_ConfigureStatusBitOverrideEvent
 1097              		.syntax unified
 1098              		.thumb
 1099              		.thumb_func
 1100              		.fpu fpv4-sp-d16
 1102              	XMC_CCU4_SLICE_ConfigureStatusBitOverrideEvent:
 1103              	.LVL104:
 1104              	.LFB223:
 667:/opt/XMClib/XMC_Peripheral_Library_v2.1.16/XMCLib/src/xmc_ccu4.c **** 
 668:/opt/XMClib/XMC_Peripheral_Library_v2.1.16/XMCLib/src/xmc_ccu4.c **** /* API to configure a slice Status Bit Override event */
 669:/opt/XMClib/XMC_Peripheral_Library_v2.1.16/XMCLib/src/xmc_ccu4.c **** void XMC_CCU4_SLICE_ConfigureStatusBitOverrideEvent(XMC_CCU4_SLICE_t *const slice,
 670:/opt/XMClib/XMC_Peripheral_Library_v2.1.16/XMCLib/src/xmc_ccu4.c ****                                                     const XMC_CCU4_SLICE_EVENT_CONFIG_t *const ev1_
 671:/opt/XMClib/XMC_Peripheral_Library_v2.1.16/XMCLib/src/xmc_ccu4.c ****                                                     const XMC_CCU4_SLICE_EVENT_CONFIG_t *const ev2_
 672:/opt/XMClib/XMC_Peripheral_Library_v2.1.16/XMCLib/src/xmc_ccu4.c **** {
 1105              		.loc 1 672 1 is_stmt 1 view -0
 1106              		.cfi_startproc
 1107              		@ args = 0, pretend = 0, frame = 0
 1108              		@ frame_needed = 0, uses_anonymous_args = 0
 1109              		@ link register save eliminated.
 1110              		.loc 1 672 1 is_stmt 0 view .LVU388
 1111 0000 10B4     		push	{r4}
 1112              	.LCFI8:
 1113              		.cfi_def_cfa_offset 4
 1114              		.cfi_offset 4, -4
 673:/opt/XMClib/XMC_Peripheral_Library_v2.1.16/XMCLib/src/xmc_ccu4.c ****   uint32_t ins;
 1115              		.loc 1 673 3 is_stmt 1 view .LVU389
 674:/opt/XMClib/XMC_Peripheral_Library_v2.1.16/XMCLib/src/xmc_ccu4.c **** 
 675:/opt/XMClib/XMC_Peripheral_Library_v2.1.16/XMCLib/src/xmc_ccu4.c ****   XMC_ASSERT("XMC_CCU4_SLICE_ConfigureStatusBitOverrideEvent:Invalid Slice Pointer", XMC_CCU4_IsVal
 1116              		.loc 1 675 3 view .LVU390
 1117              		.loc 1 675 115 view .LVU391
 676:/opt/XMClib/XMC_Peripheral_Library_v2.1.16/XMCLib/src/xmc_ccu4.c ****   XMC_ASSERT("XMC_CCU4_SLICE_ConfigureStatusBitOverrideEvent:Invalid Input",
 1118              		.loc 1 676 3 view .LVU392
 677:/opt/XMClib/XMC_Peripheral_Library_v2.1.16/XMCLib/src/xmc_ccu4.c ****          XMC_CCU4_SLICE_IsInputvalid(ev1_config->mapped_input));
 1119              		.loc 1 677 64 view .LVU393
 678:/opt/XMClib/XMC_Peripheral_Library_v2.1.16/XMCLib/src/xmc_ccu4.c ****   XMC_ASSERT("XMC_CCU4_SLICE_ConfigureStatusBitOverrideEvent:Invalid Edge Sensitivity",
 1120              		.loc 1 678 3 view .LVU394
 679:/opt/XMClib/XMC_Peripheral_Library_v2.1.16/XMCLib/src/xmc_ccu4.c ****              XMC_CCU4_SLICE_CHECK_EDGE_SENSITIVITY(ev1_config->edge));
 1121              		.loc 1 679 70 view .LVU395
 680:/opt/XMClib/XMC_Peripheral_Library_v2.1.16/XMCLib/src/xmc_ccu4.c ****   XMC_ASSERT("XMC_CCU4_SLICE_ConfigureStatusBitOverrideEvent:Invalid Level Sensitivity",
 1122              		.loc 1 680 3 view .LVU396
 681:/opt/XMClib/XMC_Peripheral_Library_v2.1.16/XMCLib/src/xmc_ccu4.c ****              ((ev1_config->level == XMC_CCU4_SLICE_EVENT_LEVEL_SENSITIVITY_ACTIVE_HIGH) ||\
 682:/opt/XMClib/XMC_Peripheral_Library_v2.1.16/XMCLib/src/xmc_ccu4.c ****               (ev1_config->level == XMC_CCU4_SLICE_EVENT_LEVEL_SENSITIVITY_ACTIVE_LOW)));
 1123              		.loc 1 682 89 view .LVU397
 683:/opt/XMClib/XMC_Peripheral_Library_v2.1.16/XMCLib/src/xmc_ccu4.c ****   XMC_ASSERT("XMC_CCU4_SLICE_ConfigureStatusBitOverrideEvent:Invalid Debounce Period",
 1124              		.loc 1 683 3 view .LVU398
 684:/opt/XMClib/XMC_Peripheral_Library_v2.1.16/XMCLib/src/xmc_ccu4.c ****              XMC_CCU4_SLICE_CHECK_EVENT_FILTER(ev1_config->duration));
 1125              		.loc 1 684 70 view .LVU399
 685:/opt/XMClib/XMC_Peripheral_Library_v2.1.16/XMCLib/src/xmc_ccu4.c ****   XMC_ASSERT("XMC_CCU4_SLICE_ConfigureStatusBitOverrideEvent:Invalid Input",
 1126              		.loc 1 685 3 view .LVU400
 686:/opt/XMClib/XMC_Peripheral_Library_v2.1.16/XMCLib/src/xmc_ccu4.c ****          XMC_CCU4_SLICE_IsInputvalid(ev2_config->mapped_input));
 1127              		.loc 1 686 64 view .LVU401
 687:/opt/XMClib/XMC_Peripheral_Library_v2.1.16/XMCLib/src/xmc_ccu4.c ****   XMC_ASSERT("XMC_CCU4_SLICE_ConfigureStatusBitOverrideEvent:Invalid Edge Sensitivity",
 1128              		.loc 1 687 3 view .LVU402
 688:/opt/XMClib/XMC_Peripheral_Library_v2.1.16/XMCLib/src/xmc_ccu4.c ****              XMC_CCU4_SLICE_CHECK_EDGE_SENSITIVITY(ev2_config->edge));
 1129              		.loc 1 688 70 view .LVU403
 689:/opt/XMClib/XMC_Peripheral_Library_v2.1.16/XMCLib/src/xmc_ccu4.c ****   XMC_ASSERT("XMC_CCU4_SLICE_ConfigureStatusBitOverrideEvent:Invalid Level Sensitivity",
 1130              		.loc 1 689 3 view .LVU404
 690:/opt/XMClib/XMC_Peripheral_Library_v2.1.16/XMCLib/src/xmc_ccu4.c ****              ((ev2_config->level == XMC_CCU4_SLICE_EVENT_LEVEL_SENSITIVITY_ACTIVE_HIGH) ||\
 691:/opt/XMClib/XMC_Peripheral_Library_v2.1.16/XMCLib/src/xmc_ccu4.c ****               (ev2_config->level == XMC_CCU4_SLICE_EVENT_LEVEL_SENSITIVITY_ACTIVE_LOW)));
 1131              		.loc 1 691 89 view .LVU405
 692:/opt/XMClib/XMC_Peripheral_Library_v2.1.16/XMCLib/src/xmc_ccu4.c ****   XMC_ASSERT("XMC_CCU4_SLICE_ConfigureStatusBitOverrideEvent:Invalid Debounce Period", 
 1132              		.loc 1 692 3 view .LVU406
 693:/opt/XMClib/XMC_Peripheral_Library_v2.1.16/XMCLib/src/xmc_ccu4.c ****              XMC_CCU4_SLICE_CHECK_EVENT_FILTER(ev2_config->duration));
 1133              		.loc 1 693 70 view .LVU407
 694:/opt/XMClib/XMC_Peripheral_Library_v2.1.16/XMCLib/src/xmc_ccu4.c **** #if defined(CCU4V3) /* Defined for XMC1400 devices only */
 695:/opt/XMClib/XMC_Peripheral_Library_v2.1.16/XMCLib/src/xmc_ccu4.c ****   ins = slice->INS2;
 696:/opt/XMClib/XMC_Peripheral_Library_v2.1.16/XMCLib/src/xmc_ccu4.c **** 
 697:/opt/XMClib/XMC_Peripheral_Library_v2.1.16/XMCLib/src/xmc_ccu4.c ****   /* Configure the edge sensitivity for event 1 */
 698:/opt/XMClib/XMC_Peripheral_Library_v2.1.16/XMCLib/src/xmc_ccu4.c ****   ins &= ~(((uint32_t) XMC_CCU4_SLICE_EVENT_EDGE_CONFIG_MASK) << CCU4_CC4_INS2_EV1EM_Pos);
 699:/opt/XMClib/XMC_Peripheral_Library_v2.1.16/XMCLib/src/xmc_ccu4.c ****   ins |= ((uint32_t) ev1_config->edge) << CCU4_CC4_INS2_EV1EM_Pos;
 700:/opt/XMClib/XMC_Peripheral_Library_v2.1.16/XMCLib/src/xmc_ccu4.c ****   
 701:/opt/XMClib/XMC_Peripheral_Library_v2.1.16/XMCLib/src/xmc_ccu4.c ****   /* Configure the edge sensitivity for event 2 */
 702:/opt/XMClib/XMC_Peripheral_Library_v2.1.16/XMCLib/src/xmc_ccu4.c ****   ins &= ~(((uint32_t) XMC_CCU4_SLICE_EVENT_EDGE_CONFIG_MASK) << CCU4_CC4_INS2_EV2EM_Pos);
 703:/opt/XMClib/XMC_Peripheral_Library_v2.1.16/XMCLib/src/xmc_ccu4.c ****   ins |= ((uint32_t) ev2_config->edge) << CCU4_CC4_INS2_EV2EM_Pos;
 704:/opt/XMClib/XMC_Peripheral_Library_v2.1.16/XMCLib/src/xmc_ccu4.c ****   
 705:/opt/XMClib/XMC_Peripheral_Library_v2.1.16/XMCLib/src/xmc_ccu4.c ****   /* Configure the level sensitivity for event 1 */
 706:/opt/XMClib/XMC_Peripheral_Library_v2.1.16/XMCLib/src/xmc_ccu4.c ****   ins &= ~(((uint32_t) XMC_CCU4_SLICE_EVENT_LEVEL_CONFIG_MASK) << CCU4_CC4_INS2_EV1LM_Pos);
 707:/opt/XMClib/XMC_Peripheral_Library_v2.1.16/XMCLib/src/xmc_ccu4.c ****   ins |= ((uint32_t) ev1_config->level) << CCU4_CC4_INS2_EV1LM_Pos;
 708:/opt/XMClib/XMC_Peripheral_Library_v2.1.16/XMCLib/src/xmc_ccu4.c ****   
 709:/opt/XMClib/XMC_Peripheral_Library_v2.1.16/XMCLib/src/xmc_ccu4.c ****   /* Configure the level sensitivity for event 2 */
 710:/opt/XMClib/XMC_Peripheral_Library_v2.1.16/XMCLib/src/xmc_ccu4.c ****   ins &= ~(((uint32_t) XMC_CCU4_SLICE_EVENT_LEVEL_CONFIG_MASK) << CCU4_CC4_INS2_EV2LM_Pos);
 711:/opt/XMClib/XMC_Peripheral_Library_v2.1.16/XMCLib/src/xmc_ccu4.c ****   ins |= ((uint32_t) ev2_config->level) << CCU4_CC4_INS2_EV2LM_Pos;
 712:/opt/XMClib/XMC_Peripheral_Library_v2.1.16/XMCLib/src/xmc_ccu4.c ****   
 713:/opt/XMClib/XMC_Peripheral_Library_v2.1.16/XMCLib/src/xmc_ccu4.c ****   /* Configure the debounce filter for event 1 */
 714:/opt/XMClib/XMC_Peripheral_Library_v2.1.16/XMCLib/src/xmc_ccu4.c ****   ins &= ~(((uint32_t) XMC_CCU4_SLICE_EVENT_FILTER_CONFIG_MASK) << CCU4_CC4_INS2_LPF1M_Pos);
 715:/opt/XMClib/XMC_Peripheral_Library_v2.1.16/XMCLib/src/xmc_ccu4.c ****   ins |= ((uint32_t) ev1_config->duration) << CCU4_CC4_INS2_LPF1M_Pos;
 716:/opt/XMClib/XMC_Peripheral_Library_v2.1.16/XMCLib/src/xmc_ccu4.c **** 
 717:/opt/XMClib/XMC_Peripheral_Library_v2.1.16/XMCLib/src/xmc_ccu4.c ****   /* Configure the debounce filter for event 2 */
 718:/opt/XMClib/XMC_Peripheral_Library_v2.1.16/XMCLib/src/xmc_ccu4.c ****   ins &= ~(((uint32_t) XMC_CCU4_SLICE_EVENT_FILTER_CONFIG_MASK) << CCU4_CC4_INS2_LPF2M_Pos);
 719:/opt/XMClib/XMC_Peripheral_Library_v2.1.16/XMCLib/src/xmc_ccu4.c ****   ins |= ((uint32_t) ev2_config->duration) << CCU4_CC4_INS2_LPF2M_Pos;
 720:/opt/XMClib/XMC_Peripheral_Library_v2.1.16/XMCLib/src/xmc_ccu4.c ****   
 721:/opt/XMClib/XMC_Peripheral_Library_v2.1.16/XMCLib/src/xmc_ccu4.c ****   slice->INS2 = ins;
 722:/opt/XMClib/XMC_Peripheral_Library_v2.1.16/XMCLib/src/xmc_ccu4.c ****   
 723:/opt/XMClib/XMC_Peripheral_Library_v2.1.16/XMCLib/src/xmc_ccu4.c ****   ins = slice->INS1;
 724:/opt/XMClib/XMC_Peripheral_Library_v2.1.16/XMCLib/src/xmc_ccu4.c ****   
 725:/opt/XMClib/XMC_Peripheral_Library_v2.1.16/XMCLib/src/xmc_ccu4.c ****   /* Next, the input for Event1 */
 726:/opt/XMClib/XMC_Peripheral_Library_v2.1.16/XMCLib/src/xmc_ccu4.c ****   ins &= ~(((uint32_t) XMC_CCU4_SLICE_EVENT_INPUT_CONFIG_MASK) << CCU4_CC4_INS1_EV1IS_Pos);
 727:/opt/XMClib/XMC_Peripheral_Library_v2.1.16/XMCLib/src/xmc_ccu4.c ****   ins |= ((uint32_t) ev1_config->mapped_input) << CCU4_CC4_INS1_EV1IS_Pos;
 728:/opt/XMClib/XMC_Peripheral_Library_v2.1.16/XMCLib/src/xmc_ccu4.c **** 
 729:/opt/XMClib/XMC_Peripheral_Library_v2.1.16/XMCLib/src/xmc_ccu4.c ****   /* Finally, the input for Event2 */
 730:/opt/XMClib/XMC_Peripheral_Library_v2.1.16/XMCLib/src/xmc_ccu4.c ****   ins &= ~(((uint32_t) XMC_CCU4_SLICE_EVENT_INPUT_CONFIG_MASK) << CCU4_CC4_INS1_EV2IS_Pos);
 731:/opt/XMClib/XMC_Peripheral_Library_v2.1.16/XMCLib/src/xmc_ccu4.c ****   ins |= ((uint32_t) ev2_config->mapped_input) << CCU4_CC4_INS1_EV2IS_Pos;
 732:/opt/XMClib/XMC_Peripheral_Library_v2.1.16/XMCLib/src/xmc_ccu4.c ****   
 733:/opt/XMClib/XMC_Peripheral_Library_v2.1.16/XMCLib/src/xmc_ccu4.c ****   slice->INS1 = ins;
 734:/opt/XMClib/XMC_Peripheral_Library_v2.1.16/XMCLib/src/xmc_ccu4.c **** #else
 735:/opt/XMClib/XMC_Peripheral_Library_v2.1.16/XMCLib/src/xmc_ccu4.c ****   ins = slice->INS;
 1134              		.loc 1 735 3 view .LVU408
 1135              		.loc 1 735 7 is_stmt 0 view .LVU409
 1136 0002 0368     		ldr	r3, [r0]
 1137              	.LVL105:
 736:/opt/XMClib/XMC_Peripheral_Library_v2.1.16/XMCLib/src/xmc_ccu4.c **** 
 737:/opt/XMClib/XMC_Peripheral_Library_v2.1.16/XMCLib/src/xmc_ccu4.c ****   /* Configure the edge sensitivity for event 1 */
 738:/opt/XMClib/XMC_Peripheral_Library_v2.1.16/XMCLib/src/xmc_ccu4.c ****   ins &= ~(((uint32_t) XMC_CCU4_SLICE_EVENT_EDGE_CONFIG_MASK) << CCU4_CC4_INS_EV1EM_Pos);
 1138              		.loc 1 738 3 is_stmt 1 view .LVU410
 1139              		.loc 1 738 7 is_stmt 0 view .LVU411
 1140 0004 23F44023 		bic	r3, r3, #786432
 1141              	.LVL106:
 739:/opt/XMClib/XMC_Peripheral_Library_v2.1.16/XMCLib/src/xmc_ccu4.c ****   ins |= ((uint32_t) ev1_config->edge) << CCU4_CC4_INS_EV1EM_Pos;
 1142              		.loc 1 739 3 is_stmt 1 view .LVU412
 1143              		.loc 1 739 11 is_stmt 0 view .LVU413
 1144 0008 4C78     		ldrb	r4, [r1, #1]	@ zero_extendqisi2
 1145              		.loc 1 739 7 view .LVU414
 1146 000a 43EA8443 		orr	r3, r3, r4, lsl #18
 1147              	.LVL107:
 740:/opt/XMClib/XMC_Peripheral_Library_v2.1.16/XMCLib/src/xmc_ccu4.c ****   
 741:/opt/XMClib/XMC_Peripheral_Library_v2.1.16/XMCLib/src/xmc_ccu4.c ****   /* Configure the edge sensitivity for event 2 */
 742:/opt/XMClib/XMC_Peripheral_Library_v2.1.16/XMCLib/src/xmc_ccu4.c ****   ins &= ~(((uint32_t) XMC_CCU4_SLICE_EVENT_EDGE_CONFIG_MASK) << CCU4_CC4_INS_EV2EM_Pos);
 1148              		.loc 1 742 3 is_stmt 1 view .LVU415
 1149              		.loc 1 742 7 is_stmt 0 view .LVU416
 1150 000e 23F44013 		bic	r3, r3, #3145728
 1151              	.LVL108:
 743:/opt/XMClib/XMC_Peripheral_Library_v2.1.16/XMCLib/src/xmc_ccu4.c ****   ins |= ((uint32_t) ev2_config->edge) << CCU4_CC4_INS_EV2EM_Pos;
 1152              		.loc 1 743 3 is_stmt 1 view .LVU417
 1153              		.loc 1 743 11 is_stmt 0 view .LVU418
 1154 0012 5478     		ldrb	r4, [r2, #1]	@ zero_extendqisi2
 1155              		.loc 1 743 7 view .LVU419
 1156 0014 43EA0453 		orr	r3, r3, r4, lsl #20
 1157              	.LVL109:
 744:/opt/XMClib/XMC_Peripheral_Library_v2.1.16/XMCLib/src/xmc_ccu4.c ****   
 745:/opt/XMClib/XMC_Peripheral_Library_v2.1.16/XMCLib/src/xmc_ccu4.c ****   /* Configure the level sensitivity for event 1 */
 746:/opt/XMClib/XMC_Peripheral_Library_v2.1.16/XMCLib/src/xmc_ccu4.c ****   ins &= ~(((uint32_t) XMC_CCU4_SLICE_EVENT_LEVEL_CONFIG_MASK) << CCU4_CC4_INS_EV1LM_Pos);
 1158              		.loc 1 746 3 is_stmt 1 view .LVU420
 1159              		.loc 1 746 7 is_stmt 0 view .LVU421
 1160 0018 23F40003 		bic	r3, r3, #8388608
 1161              	.LVL110:
 747:/opt/XMClib/XMC_Peripheral_Library_v2.1.16/XMCLib/src/xmc_ccu4.c ****   ins |= ((uint32_t) ev1_config->level) << CCU4_CC4_INS_EV1LM_Pos;
 1162              		.loc 1 747 3 is_stmt 1 view .LVU422
 1163              		.loc 1 747 11 is_stmt 0 view .LVU423
 1164 001c 8C78     		ldrb	r4, [r1, #2]	@ zero_extendqisi2
 1165              		.loc 1 747 7 view .LVU424
 1166 001e 43EAC453 		orr	r3, r3, r4, lsl #23
 1167              	.LVL111:
 748:/opt/XMClib/XMC_Peripheral_Library_v2.1.16/XMCLib/src/xmc_ccu4.c ****   
 749:/opt/XMClib/XMC_Peripheral_Library_v2.1.16/XMCLib/src/xmc_ccu4.c ****   /* Configure the level sensitivity for event 2 */
 750:/opt/XMClib/XMC_Peripheral_Library_v2.1.16/XMCLib/src/xmc_ccu4.c ****   ins &= ~(((uint32_t) XMC_CCU4_SLICE_EVENT_LEVEL_CONFIG_MASK) << CCU4_CC4_INS_EV2LM_Pos);
 1168              		.loc 1 750 3 is_stmt 1 view .LVU425
 1169              		.loc 1 750 7 is_stmt 0 view .LVU426
 1170 0022 23F08073 		bic	r3, r3, #16777216
 1171              	.LVL112:
 751:/opt/XMClib/XMC_Peripheral_Library_v2.1.16/XMCLib/src/xmc_ccu4.c ****   ins |= ((uint32_t) ev2_config->level) << CCU4_CC4_INS_EV2LM_Pos;
 1172              		.loc 1 751 3 is_stmt 1 view .LVU427
 1173              		.loc 1 751 11 is_stmt 0 view .LVU428
 1174 0026 9478     		ldrb	r4, [r2, #2]	@ zero_extendqisi2
 1175              		.loc 1 751 7 view .LVU429
 1176 0028 43EA0463 		orr	r3, r3, r4, lsl #24
 1177              	.LVL113:
 752:/opt/XMClib/XMC_Peripheral_Library_v2.1.16/XMCLib/src/xmc_ccu4.c ****   
 753:/opt/XMClib/XMC_Peripheral_Library_v2.1.16/XMCLib/src/xmc_ccu4.c ****   /* Configure the debounce filter for event 1 */
 754:/opt/XMClib/XMC_Peripheral_Library_v2.1.16/XMCLib/src/xmc_ccu4.c ****   ins &= ~(((uint32_t) XMC_CCU4_SLICE_EVENT_FILTER_CONFIG_MASK) << CCU4_CC4_INS_LPF1M_Pos);
 1178              		.loc 1 754 3 is_stmt 1 view .LVU430
 1179              		.loc 1 754 7 is_stmt 0 view .LVU431
 1180 002c 23F0C053 		bic	r3, r3, #402653184
 1181              	.LVL114:
 755:/opt/XMClib/XMC_Peripheral_Library_v2.1.16/XMCLib/src/xmc_ccu4.c ****   ins |= ((uint32_t) ev1_config->duration) << CCU4_CC4_INS_LPF1M_Pos;
 1182              		.loc 1 755 3 is_stmt 1 view .LVU432
 1183              		.loc 1 755 11 is_stmt 0 view .LVU433
 1184 0030 CC78     		ldrb	r4, [r1, #3]	@ zero_extendqisi2
 1185              		.loc 1 755 7 view .LVU434
 1186 0032 43EAC463 		orr	r3, r3, r4, lsl #27
 1187              	.LVL115:
 756:/opt/XMClib/XMC_Peripheral_Library_v2.1.16/XMCLib/src/xmc_ccu4.c **** 
 757:/opt/XMClib/XMC_Peripheral_Library_v2.1.16/XMCLib/src/xmc_ccu4.c ****   /* Configure the debounce filter for event 2 */
 758:/opt/XMClib/XMC_Peripheral_Library_v2.1.16/XMCLib/src/xmc_ccu4.c ****   ins &= ~(((uint32_t) XMC_CCU4_SLICE_EVENT_FILTER_CONFIG_MASK) << CCU4_CC4_INS_LPF2M_Pos);
 1188              		.loc 1 758 3 is_stmt 1 view .LVU435
 1189              		.loc 1 758 7 is_stmt 0 view .LVU436
 1190 0036 23F0C043 		bic	r3, r3, #1610612736
 1191              	.LVL116:
 759:/opt/XMClib/XMC_Peripheral_Library_v2.1.16/XMCLib/src/xmc_ccu4.c ****   ins |= ((uint32_t) ev2_config->duration) << CCU4_CC4_INS_LPF2M_Pos;
 1192              		.loc 1 759 3 is_stmt 1 view .LVU437
 1193              		.loc 1 759 11 is_stmt 0 view .LVU438
 1194 003a D478     		ldrb	r4, [r2, #3]	@ zero_extendqisi2
 1195              		.loc 1 759 7 view .LVU439
 1196 003c 43EA4473 		orr	r3, r3, r4, lsl #29
 1197              	.LVL117:
 760:/opt/XMClib/XMC_Peripheral_Library_v2.1.16/XMCLib/src/xmc_ccu4.c ****   
 761:/opt/XMClib/XMC_Peripheral_Library_v2.1.16/XMCLib/src/xmc_ccu4.c ****   /* Next, the input for Event1 */
 762:/opt/XMClib/XMC_Peripheral_Library_v2.1.16/XMCLib/src/xmc_ccu4.c ****   ins &= ~(((uint32_t) XMC_CCU4_SLICE_EVENT_INPUT_CONFIG_MASK) << CCU4_CC4_INS_EV1IS_Pos);
 1198              		.loc 1 762 3 is_stmt 1 view .LVU440
 1199              		.loc 1 762 7 is_stmt 0 view .LVU441
 1200 0040 23F0F003 		bic	r3, r3, #240
 1201              	.LVL118:
 763:/opt/XMClib/XMC_Peripheral_Library_v2.1.16/XMCLib/src/xmc_ccu4.c ****   ins |= ((uint32_t) ev1_config->mapped_input) << CCU4_CC4_INS_EV1IS_Pos;
 1202              		.loc 1 763 3 is_stmt 1 view .LVU442
 1203              		.loc 1 763 11 is_stmt 0 view .LVU443
 1204 0044 0978     		ldrb	r1, [r1]	@ zero_extendqisi2
 1205              	.LVL119:
 1206              		.loc 1 763 7 view .LVU444
 1207 0046 43EA0113 		orr	r3, r3, r1, lsl #4
 1208              	.LVL120:
 764:/opt/XMClib/XMC_Peripheral_Library_v2.1.16/XMCLib/src/xmc_ccu4.c **** 
 765:/opt/XMClib/XMC_Peripheral_Library_v2.1.16/XMCLib/src/xmc_ccu4.c ****   /* Finally, the input for Event2 */
 766:/opt/XMClib/XMC_Peripheral_Library_v2.1.16/XMCLib/src/xmc_ccu4.c ****   ins &= ~(((uint32_t) XMC_CCU4_SLICE_EVENT_INPUT_CONFIG_MASK) << CCU4_CC4_INS_EV2IS_Pos);
 1209              		.loc 1 766 3 is_stmt 1 view .LVU445
 1210              		.loc 1 766 7 is_stmt 0 view .LVU446
 1211 004a 23F47063 		bic	r3, r3, #3840
 1212              	.LVL121:
 767:/opt/XMClib/XMC_Peripheral_Library_v2.1.16/XMCLib/src/xmc_ccu4.c ****   ins |= ((uint32_t) ev2_config->mapped_input) << CCU4_CC4_INS_EV2IS_Pos;
 1213              		.loc 1 767 3 is_stmt 1 view .LVU447
 1214              		.loc 1 767 11 is_stmt 0 view .LVU448
 1215 004e 1278     		ldrb	r2, [r2]	@ zero_extendqisi2
 1216              	.LVL122:
 1217              		.loc 1 767 7 view .LVU449
 1218 0050 43EA0223 		orr	r3, r3, r2, lsl #8
 1219              	.LVL123:
 768:/opt/XMClib/XMC_Peripheral_Library_v2.1.16/XMCLib/src/xmc_ccu4.c ****   
 769:/opt/XMClib/XMC_Peripheral_Library_v2.1.16/XMCLib/src/xmc_ccu4.c ****   slice->INS = ins;
 1220              		.loc 1 769 3 is_stmt 1 view .LVU450
 1221              		.loc 1 769 14 is_stmt 0 view .LVU451
 1222 0054 0360     		str	r3, [r0]
 770:/opt/XMClib/XMC_Peripheral_Library_v2.1.16/XMCLib/src/xmc_ccu4.c **** #endif
 771:/opt/XMClib/XMC_Peripheral_Library_v2.1.16/XMCLib/src/xmc_ccu4.c **** }
 1223              		.loc 1 771 1 view .LVU452
 1224 0056 5DF8044B 		ldr	r4, [sp], #4
 1225              	.LCFI9:
 1226              		.cfi_restore 4
 1227              		.cfi_def_cfa_offset 0
 1228 005a 7047     		bx	lr
 1229              		.cfi_endproc
 1230              	.LFE223:
 1232              		.section	.text.XMC_CCU4_SLICE_ConfigureEvent,"ax",%progbits
 1233              		.align	1
 1234              		.global	XMC_CCU4_SLICE_ConfigureEvent
 1235              		.syntax unified
 1236              		.thumb
 1237              		.thumb_func
 1238              		.fpu fpv4-sp-d16
 1240              	XMC_CCU4_SLICE_ConfigureEvent:
 1241              	.LVL124:
 1242              	.LFB224:
 772:/opt/XMClib/XMC_Peripheral_Library_v2.1.16/XMCLib/src/xmc_ccu4.c **** 
 773:/opt/XMClib/XMC_Peripheral_Library_v2.1.16/XMCLib/src/xmc_ccu4.c **** /* API to configure a slice trigger event */
 774:/opt/XMClib/XMC_Peripheral_Library_v2.1.16/XMCLib/src/xmc_ccu4.c **** void XMC_CCU4_SLICE_ConfigureEvent(XMC_CCU4_SLICE_t *const slice,
 775:/opt/XMClib/XMC_Peripheral_Library_v2.1.16/XMCLib/src/xmc_ccu4.c ****                                    const XMC_CCU4_SLICE_EVENT_t event,
 776:/opt/XMClib/XMC_Peripheral_Library_v2.1.16/XMCLib/src/xmc_ccu4.c ****                                    const XMC_CCU4_SLICE_EVENT_CONFIG_t *const config)
 777:/opt/XMClib/XMC_Peripheral_Library_v2.1.16/XMCLib/src/xmc_ccu4.c **** {
 1243              		.loc 1 777 1 is_stmt 1 view -0
 1244              		.cfi_startproc
 1245              		@ args = 0, pretend = 0, frame = 0
 1246              		@ frame_needed = 0, uses_anonymous_args = 0
 1247              		@ link register save eliminated.
 1248              		.loc 1 777 1 is_stmt 0 view .LVU454
 1249 0000 F0B4     		push	{r4, r5, r6, r7}
 1250              	.LCFI10:
 1251              		.cfi_def_cfa_offset 16
 1252              		.cfi_offset 4, -16
 1253              		.cfi_offset 5, -12
 1254              		.cfi_offset 6, -8
 1255              		.cfi_offset 7, -4
 778:/opt/XMClib/XMC_Peripheral_Library_v2.1.16/XMCLib/src/xmc_ccu4.c ****   uint32_t ins;
 1256              		.loc 1 778 3 is_stmt 1 view .LVU455
 779:/opt/XMClib/XMC_Peripheral_Library_v2.1.16/XMCLib/src/xmc_ccu4.c ****   uint8_t  pos;
 1257              		.loc 1 779 3 view .LVU456
 780:/opt/XMClib/XMC_Peripheral_Library_v2.1.16/XMCLib/src/xmc_ccu4.c ****   uint8_t  offset;
 1258              		.loc 1 780 3 view .LVU457
 781:/opt/XMClib/XMC_Peripheral_Library_v2.1.16/XMCLib/src/xmc_ccu4.c **** 
 782:/opt/XMClib/XMC_Peripheral_Library_v2.1.16/XMCLib/src/xmc_ccu4.c ****   XMC_ASSERT("XMC_CCU4_SLICE_ConfigureEvent:Invalid Slice Pointer", XMC_CCU4_IsValidSlice(slice));
 1259              		.loc 1 782 3 view .LVU458
 1260              		.loc 1 782 98 view .LVU459
 783:/opt/XMClib/XMC_Peripheral_Library_v2.1.16/XMCLib/src/xmc_ccu4.c ****   XMC_ASSERT("XMC_CCU4_SLICE_ConfigureEvent:Invalid Event ID", XMC_CCU4_SLICE_CHECK_EVENT_ID(event)
 1261              		.loc 1 783 3 view .LVU460
 1262              		.loc 1 783 101 view .LVU461
 784:/opt/XMClib/XMC_Peripheral_Library_v2.1.16/XMCLib/src/xmc_ccu4.c ****   XMC_ASSERT("XMC_CCU4_SLICE_ConfigureEvent:Invalid Input", XMC_CCU4_SLICE_IsInputvalid(config->map
 1263              		.loc 1 784 3 view .LVU462
 1264              		.loc 1 784 111 view .LVU463
 785:/opt/XMClib/XMC_Peripheral_Library_v2.1.16/XMCLib/src/xmc_ccu4.c ****   XMC_ASSERT("XMC_CCU4_SLICE_ConfigureEvent:Invalid Edge Sensitivity",
 1265              		.loc 1 785 3 view .LVU464
 786:/opt/XMClib/XMC_Peripheral_Library_v2.1.16/XMCLib/src/xmc_ccu4.c ****              XMC_CCU4_SLICE_CHECK_EDGE_SENSITIVITY(config->edge));
 1266              		.loc 1 786 66 view .LVU465
 787:/opt/XMClib/XMC_Peripheral_Library_v2.1.16/XMCLib/src/xmc_ccu4.c ****   XMC_ASSERT("XMC_CCU4_SLICE_ConfigureEvent:Invalid Level Sensitivity",
 1267              		.loc 1 787 3 view .LVU466
 788:/opt/XMClib/XMC_Peripheral_Library_v2.1.16/XMCLib/src/xmc_ccu4.c ****              ((config->level == XMC_CCU4_SLICE_EVENT_LEVEL_SENSITIVITY_ACTIVE_HIGH) ||\
 789:/opt/XMClib/XMC_Peripheral_Library_v2.1.16/XMCLib/src/xmc_ccu4.c ****               (config->level == XMC_CCU4_SLICE_EVENT_LEVEL_SENSITIVITY_ACTIVE_LOW)));
 1268              		.loc 1 789 85 view .LVU467
 790:/opt/XMClib/XMC_Peripheral_Library_v2.1.16/XMCLib/src/xmc_ccu4.c ****   XMC_ASSERT("XMC_CCU4_SLICE_ConfigureEvent:Invalid Debounce Period", 
 1269              		.loc 1 790 3 view .LVU468
